

Microchip MPLAB XC8 Assembler V2.36 build 20220127204148 
                                                                                               Sun May 08 14:06:55 2022

Microchip MPLAB XC8 C Compiler v2.36 (Free license) build 20220127204148 Og1 
     1                           	processor	16F18323
     2                           	pagewidth 120
     3                           	opt	flic
     4                           	psect	nvBANK0,global,class=BANK0,space=1,delta=1,noexec
     5                           	psect	cinit,global,class=CODE,merge=1,delta=2
     6                           	psect	bssBANK0,global,class=BANK0,space=1,delta=1,noexec
     7                           	psect	cstackCOMMON,global,class=COMMON,space=1,delta=1,noexec
     8                           	psect	cstackBANK0,global,class=BANK0,space=1,delta=1,noexec
     9                           	psect	maintext,global,class=CODE,merge=1,split=1,delta=2
    10                           	psect	text1,local,class=CODE,merge=1,delta=2
    11                           	psect	text2,local,class=CODE,merge=1,delta=2
    12                           	psect	text3,local,class=CODE,merge=1,delta=2
    13                           	psect	text4,local,class=CODE,merge=1,delta=2
    14                           	psect	text5,local,class=CODE,merge=1,delta=2
    15                           	psect	text6,local,class=CODE,merge=1,delta=2
    16                           	psect	text7,local,class=CODE,merge=1,delta=2
    17                           	psect	text8,local,class=CODE,merge=1,delta=2,group=1
    18                           	psect	text9,local,class=CODE,merge=1,delta=2
    19                           	psect	idloc,global,abs,ovrld,class=IDLOC,space=5,delta=2,noexec
    20                           	psect	config,global,abs,ovrld,class=CONFIG,space=4,delta=2,noexec
    21                           	dabs	1,0x7E,2
    22  0000                     
    23                           ; Version 2.40
    24                           ; Generated 02/12/2021 GMT
    25                           ; 
    26                           ; Copyright © 2021, Microchip Technology Inc. and its subsidiaries ("Microchip")
    27                           ; All rights reserved.
    28                           ; 
    29                           ; This software is developed by Microchip Technology Inc. and its subsidiaries ("Microch
      +                          ip").
    30                           ; 
    31                           ; Redistribution and use in source and binary forms, with or without modification, are
    32                           ; permitted provided that the following conditions are met:
    33                           ; 
    34                           ;     1. Redistributions of source code must retain the above copyright notice, this lis
      +                          t of
    35                           ;        conditions and the following disclaimer.
    36                           ; 
    37                           ;     2. Redistributions in binary form must reproduce the above copyright notice, this 
      +                          list
    38                           ;        of conditions and the following disclaimer in the documentation and/or other
    39                           ;        materials provided with the distribution. Publication is not required when
    40                           ;        this file is used in an embedded application.
    41                           ; 
    42                           ;     3. Microchip's name may not be used to endorse or promote products derived from th
      +                          is
    43                           ;        software without specific prior written permission.
    44                           ; 
    45                           ; THIS SOFTWARE IS PROVIDED BY MICROCHIP "AS IS" AND ANY EXPRESS OR IMPLIED WARRANTIES,
    46                           ; INCLUDING, BUT NOT LIMITED TO, THE IMPLIED WARRANTIES OF MERCHANTABILITY AND FITNESS F
      +                          OR
    47                           ; PURPOSE ARE DISCLAIMED.  IN NO EVENT SHALL MICROCHIP BE LIABLE FOR ANY DIRECT, INDIREC
      +                          T,
    48                           ; INCIDENTAL, SPECIAL, EXEMPLARY, OR CONSEQUENTIAL DAMAGES (INCLUDING BUT NOT LIMITED TO
    49                           ; PROCUREMENT OF SUBSTITUTE GOODS OR SERVICES; LOSS OF USE, DATA OR PROFITS; OR BUSINESS
    50                           ; INTERRUPTION) HOWSOEVER CAUSED AND ON ANY THEORY OF LIABILITY, WHETHER IN CONTRACT, ST
      +                          RICT
    51                           ; LIABILITY, OR TORT (INCLUDING NEGLIGENCE OR OTHERWISE) ARISING IN ANY WAY OUT OF THE U
      +                          SE OF
    52                           ; THIS SOFTWARE, EVEN IF ADVISED OF THE POSSIBILITY OF SUCH DAMAGE.
    53                           ; 
    54                           ; 
    55                           ; Code-generator required, PIC16F18323 Definitions
    56                           ; 
    57                           ; SFR Addresses
    58  0000                     	;# 
    59  0001                     	;# 
    60  0002                     	;# 
    61  0003                     	;# 
    62  0004                     	;# 
    63  0005                     	;# 
    64  0006                     	;# 
    65  0007                     	;# 
    66  0008                     	;# 
    67  0009                     	;# 
    68  000A                     	;# 
    69  000B                     	;# 
    70  000C                     	;# 
    71  000E                     	;# 
    72  0010                     	;# 
    73  0011                     	;# 
    74  0012                     	;# 
    75  0013                     	;# 
    76  0014                     	;# 
    77  0015                     	;# 
    78  0015                     	;# 
    79  0016                     	;# 
    80  0016                     	;# 
    81  0017                     	;# 
    82  0018                     	;# 
    83  0019                     	;# 
    84  0019                     	;# 
    85  001A                     	;# 
    86  001B                     	;# 
    87  001C                     	;# 
    88  001D                     	;# 
    89  001E                     	;# 
    90  001F                     	;# 
    91  008C                     	;# 
    92  008E                     	;# 
    93  0090                     	;# 
    94  0091                     	;# 
    95  0092                     	;# 
    96  0093                     	;# 
    97  0094                     	;# 
    98  0097                     	;# 
    99  009B                     	;# 
   100  009B                     	;# 
   101  009C                     	;# 
   102  009D                     	;# 
   103  009E                     	;# 
   104  009F                     	;# 
   105  010C                     	;# 
   106  010E                     	;# 
   107  0111                     	;# 
   108  0112                     	;# 
   109  0113                     	;# 
   110  0114                     	;# 
   111  0115                     	;# 
   112  0116                     	;# 
   113  0117                     	;# 
   114  0118                     	;# 
   115  0119                     	;# 
   116  018C                     	;# 
   117  018E                     	;# 
   118  0197                     	;# 
   119  0199                     	;# 
   120  0199                     	;# 
   121  0199                     	;# 
   122  019A                     	;# 
   123  019A                     	;# 
   124  019A                     	;# 
   125  019B                     	;# 
   126  019B                     	;# 
   127  019B                     	;# 
   128  019B                     	;# 
   129  019B                     	;# 
   130  019C                     	;# 
   131  019C                     	;# 
   132  019C                     	;# 
   133  019D                     	;# 
   134  019D                     	;# 
   135  019D                     	;# 
   136  019E                     	;# 
   137  019E                     	;# 
   138  019E                     	;# 
   139  019F                     	;# 
   140  019F                     	;# 
   141  019F                     	;# 
   142  019F                     	;# 
   143  019F                     	;# 
   144  020C                     	;# 
   145  020E                     	;# 
   146  0211                     	;# 
   147  0211                     	;# 
   148  0212                     	;# 
   149  0212                     	;# 
   150  0213                     	;# 
   151  0213                     	;# 
   152  0214                     	;# 
   153  0214                     	;# 
   154  0215                     	;# 
   155  0215                     	;# 
   156  0215                     	;# 
   157  0215                     	;# 
   158  0216                     	;# 
   159  0216                     	;# 
   160  0217                     	;# 
   161  0217                     	;# 
   162  028C                     	;# 
   163  028E                     	;# 
   164  0291                     	;# 
   165  0291                     	;# 
   166  0292                     	;# 
   167  0293                     	;# 
   168  0294                     	;# 
   169  0295                     	;# 
   170  0295                     	;# 
   171  0296                     	;# 
   172  0297                     	;# 
   173  0298                     	;# 
   174  030C                     	;# 
   175  030E                     	;# 
   176  038C                     	;# 
   177  038E                     	;# 
   178  0391                     	;# 
   179  0392                     	;# 
   180  0393                     	;# 
   181  0397                     	;# 
   182  0398                     	;# 
   183  0399                     	;# 
   184  039A                     	;# 
   185  039C                     	;# 
   186  039D                     	;# 
   187  039E                     	;# 
   188  039F                     	;# 
   189  0498                     	;# 
   190  0498                     	;# 
   191  0499                     	;# 
   192  049A                     	;# 
   193  049B                     	;# 
   194  049B                     	;# 
   195  049C                     	;# 
   196  049D                     	;# 
   197  049E                     	;# 
   198  049F                     	;# 
   199  0617                     	;# 
   200  0618                     	;# 
   201  0619                     	;# 
   202  0619                     	;# 
   203  061A                     	;# 
   204  061B                     	;# 
   205  061C                     	;# 
   206  061C                     	;# 
   207  0691                     	;# 
   208  0692                     	;# 
   209  0693                     	;# 
   210  0694                     	;# 
   211  0695                     	;# 
   212  0696                     	;# 
   213  0697                     	;# 
   214  0698                     	;# 
   215  0699                     	;# 
   216  0891                     	;# 
   217  0891                     	;# 
   218  0891                     	;# 
   219  0891                     	;# 
   220  0891                     	;# 
   221  0891                     	;# 
   222  0892                     	;# 
   223  0892                     	;# 
   224  0892                     	;# 
   225  0893                     	;# 
   226  0893                     	;# 
   227  0893                     	;# 
   228  0893                     	;# 
   229  0893                     	;# 
   230  0893                     	;# 
   231  0894                     	;# 
   232  0894                     	;# 
   233  0894                     	;# 
   234  0895                     	;# 
   235  0895                     	;# 
   236  0895                     	;# 
   237  0896                     	;# 
   238  0896                     	;# 
   239  0896                     	;# 
   240  089B                     	;# 
   241  0911                     	;# 
   242  0912                     	;# 
   243  0913                     	;# 
   244  0914                     	;# 
   245  0915                     	;# 
   246  0916                     	;# 
   247  0918                     	;# 
   248  0919                     	;# 
   249  091A                     	;# 
   250  091B                     	;# 
   251  091C                     	;# 
   252  091D                     	;# 
   253  091E                     	;# 
   254  091F                     	;# 
   255  0E0F                     	;# 
   256  0E10                     	;# 
   257  0E11                     	;# 
   258  0E12                     	;# 
   259  0E13                     	;# 
   260  0E14                     	;# 
   261  0E15                     	;# 
   262  0E18                     	;# 
   263  0E1A                     	;# 
   264  0E1B                     	;# 
   265  0E1C                     	;# 
   266  0E20                     	;# 
   267  0E21                     	;# 
   268  0E22                     	;# 
   269  0E24                     	;# 
   270  0E25                     	;# 
   271  0E28                     	;# 
   272  0E29                     	;# 
   273  0E2A                     	;# 
   274  0E2B                     	;# 
   275  0E90                     	;# 
   276  0E91                     	;# 
   277  0E92                     	;# 
   278  0E94                     	;# 
   279  0E95                     	;# 
   280  0EA0                     	;# 
   281  0EA1                     	;# 
   282  0EA2                     	;# 
   283  0EA3                     	;# 
   284  0EA4                     	;# 
   285  0EA5                     	;# 
   286  0F0F                     	;# 
   287  0F10                     	;# 
   288  0F11                     	;# 
   289  0F12                     	;# 
   290  0F13                     	;# 
   291  0F14                     	;# 
   292  0F15                     	;# 
   293  0F16                     	;# 
   294  0F17                     	;# 
   295  0F18                     	;# 
   296  0F19                     	;# 
   297  0F1A                     	;# 
   298  0F1B                     	;# 
   299  0F1C                     	;# 
   300  0F1D                     	;# 
   301  0F1E                     	;# 
   302  0F1F                     	;# 
   303  0F20                     	;# 
   304  0F21                     	;# 
   305  0F22                     	;# 
   306  0F23                     	;# 
   307  0FE4                     	;# 
   308  0FE5                     	;# 
   309  0FE6                     	;# 
   310  0FE7                     	;# 
   311  0FE8                     	;# 
   312  0FE9                     	;# 
   313  0FEA                     	;# 
   314  0FEB                     	;# 
   315  0FED                     	;# 
   316  0FEE                     	;# 
   317  0FEF                     	;# 
   318  0000                     	;# 
   319  0001                     	;# 
   320  0002                     	;# 
   321  0003                     	;# 
   322  0004                     	;# 
   323  0005                     	;# 
   324  0006                     	;# 
   325  0007                     	;# 
   326  0008                     	;# 
   327  0009                     	;# 
   328  000A                     	;# 
   329  000B                     	;# 
   330  000C                     	;# 
   331  000E                     	;# 
   332  0010                     	;# 
   333  0011                     	;# 
   334  0012                     	;# 
   335  0013                     	;# 
   336  0014                     	;# 
   337  0015                     	;# 
   338  0015                     	;# 
   339  0016                     	;# 
   340  0016                     	;# 
   341  0017                     	;# 
   342  0018                     	;# 
   343  0019                     	;# 
   344  0019                     	;# 
   345  001A                     	;# 
   346  001B                     	;# 
   347  001C                     	;# 
   348  001D                     	;# 
   349  001E                     	;# 
   350  001F                     	;# 
   351  008C                     	;# 
   352  008E                     	;# 
   353  0090                     	;# 
   354  0091                     	;# 
   355  0092                     	;# 
   356  0093                     	;# 
   357  0094                     	;# 
   358  0097                     	;# 
   359  009B                     	;# 
   360  009B                     	;# 
   361  009C                     	;# 
   362  009D                     	;# 
   363  009E                     	;# 
   364  009F                     	;# 
   365  010C                     	;# 
   366  010E                     	;# 
   367  0111                     	;# 
   368  0112                     	;# 
   369  0113                     	;# 
   370  0114                     	;# 
   371  0115                     	;# 
   372  0116                     	;# 
   373  0117                     	;# 
   374  0118                     	;# 
   375  0119                     	;# 
   376  018C                     	;# 
   377  018E                     	;# 
   378  0197                     	;# 
   379  0199                     	;# 
   380  0199                     	;# 
   381  0199                     	;# 
   382  019A                     	;# 
   383  019A                     	;# 
   384  019A                     	;# 
   385  019B                     	;# 
   386  019B                     	;# 
   387  019B                     	;# 
   388  019B                     	;# 
   389  019B                     	;# 
   390  019C                     	;# 
   391  019C                     	;# 
   392  019C                     	;# 
   393  019D                     	;# 
   394  019D                     	;# 
   395  019D                     	;# 
   396  019E                     	;# 
   397  019E                     	;# 
   398  019E                     	;# 
   399  019F                     	;# 
   400  019F                     	;# 
   401  019F                     	;# 
   402  019F                     	;# 
   403  019F                     	;# 
   404  020C                     	;# 
   405  020E                     	;# 
   406  0211                     	;# 
   407  0211                     	;# 
   408  0212                     	;# 
   409  0212                     	;# 
   410  0213                     	;# 
   411  0213                     	;# 
   412  0214                     	;# 
   413  0214                     	;# 
   414  0215                     	;# 
   415  0215                     	;# 
   416  0215                     	;# 
   417  0215                     	;# 
   418  0216                     	;# 
   419  0216                     	;# 
   420  0217                     	;# 
   421  0217                     	;# 
   422  028C                     	;# 
   423  028E                     	;# 
   424  0291                     	;# 
   425  0291                     	;# 
   426  0292                     	;# 
   427  0293                     	;# 
   428  0294                     	;# 
   429  0295                     	;# 
   430  0295                     	;# 
   431  0296                     	;# 
   432  0297                     	;# 
   433  0298                     	;# 
   434  030C                     	;# 
   435  030E                     	;# 
   436  038C                     	;# 
   437  038E                     	;# 
   438  0391                     	;# 
   439  0392                     	;# 
   440  0393                     	;# 
   441  0397                     	;# 
   442  0398                     	;# 
   443  0399                     	;# 
   444  039A                     	;# 
   445  039C                     	;# 
   446  039D                     	;# 
   447  039E                     	;# 
   448  039F                     	;# 
   449  0498                     	;# 
   450  0498                     	;# 
   451  0499                     	;# 
   452  049A                     	;# 
   453  049B                     	;# 
   454  049B                     	;# 
   455  049C                     	;# 
   456  049D                     	;# 
   457  049E                     	;# 
   458  049F                     	;# 
   459  0617                     	;# 
   460  0618                     	;# 
   461  0619                     	;# 
   462  0619                     	;# 
   463  061A                     	;# 
   464  061B                     	;# 
   465  061C                     	;# 
   466  061C                     	;# 
   467  0691                     	;# 
   468  0692                     	;# 
   469  0693                     	;# 
   470  0694                     	;# 
   471  0695                     	;# 
   472  0696                     	;# 
   473  0697                     	;# 
   474  0698                     	;# 
   475  0699                     	;# 
   476  0891                     	;# 
   477  0891                     	;# 
   478  0891                     	;# 
   479  0891                     	;# 
   480  0891                     	;# 
   481  0891                     	;# 
   482  0892                     	;# 
   483  0892                     	;# 
   484  0892                     	;# 
   485  0893                     	;# 
   486  0893                     	;# 
   487  0893                     	;# 
   488  0893                     	;# 
   489  0893                     	;# 
   490  0893                     	;# 
   491  0894                     	;# 
   492  0894                     	;# 
   493  0894                     	;# 
   494  0895                     	;# 
   495  0895                     	;# 
   496  0895                     	;# 
   497  0896                     	;# 
   498  0896                     	;# 
   499  0896                     	;# 
   500  089B                     	;# 
   501  0911                     	;# 
   502  0912                     	;# 
   503  0913                     	;# 
   504  0914                     	;# 
   505  0915                     	;# 
   506  0916                     	;# 
   507  0918                     	;# 
   508  0919                     	;# 
   509  091A                     	;# 
   510  091B                     	;# 
   511  091C                     	;# 
   512  091D                     	;# 
   513  091E                     	;# 
   514  091F                     	;# 
   515  0E0F                     	;# 
   516  0E10                     	;# 
   517  0E11                     	;# 
   518  0E12                     	;# 
   519  0E13                     	;# 
   520  0E14                     	;# 
   521  0E15                     	;# 
   522  0E18                     	;# 
   523  0E1A                     	;# 
   524  0E1B                     	;# 
   525  0E1C                     	;# 
   526  0E20                     	;# 
   527  0E21                     	;# 
   528  0E22                     	;# 
   529  0E24                     	;# 
   530  0E25                     	;# 
   531  0E28                     	;# 
   532  0E29                     	;# 
   533  0E2A                     	;# 
   534  0E2B                     	;# 
   535  0E90                     	;# 
   536  0E91                     	;# 
   537  0E92                     	;# 
   538  0E94                     	;# 
   539  0E95                     	;# 
   540  0EA0                     	;# 
   541  0EA1                     	;# 
   542  0EA2                     	;# 
   543  0EA3                     	;# 
   544  0EA4                     	;# 
   545  0EA5                     	;# 
   546  0F0F                     	;# 
   547  0F10                     	;# 
   548  0F11                     	;# 
   549  0F12                     	;# 
   550  0F13                     	;# 
   551  0F14                     	;# 
   552  0F15                     	;# 
   553  0F16                     	;# 
   554  0F17                     	;# 
   555  0F18                     	;# 
   556  0F19                     	;# 
   557  0F1A                     	;# 
   558  0F1B                     	;# 
   559  0F1C                     	;# 
   560  0F1D                     	;# 
   561  0F1E                     	;# 
   562  0F1F                     	;# 
   563  0F20                     	;# 
   564  0F21                     	;# 
   565  0F22                     	;# 
   566  0F23                     	;# 
   567  0FE4                     	;# 
   568  0FE5                     	;# 
   569  0FE6                     	;# 
   570  0FE7                     	;# 
   571  0FE8                     	;# 
   572  0FE9                     	;# 
   573  0FEA                     	;# 
   574  0FEB                     	;# 
   575  0FED                     	;# 
   576  0FEE                     	;# 
   577  0FEF                     	;# 
   578  0000                     	;# 
   579  0001                     	;# 
   580  0002                     	;# 
   581  0003                     	;# 
   582  0004                     	;# 
   583  0005                     	;# 
   584  0006                     	;# 
   585  0007                     	;# 
   586  0008                     	;# 
   587  0009                     	;# 
   588  000A                     	;# 
   589  000B                     	;# 
   590  000C                     	;# 
   591  000E                     	;# 
   592  0010                     	;# 
   593  0011                     	;# 
   594  0012                     	;# 
   595  0013                     	;# 
   596  0014                     	;# 
   597  0015                     	;# 
   598  0015                     	;# 
   599  0016                     	;# 
   600  0016                     	;# 
   601  0017                     	;# 
   602  0018                     	;# 
   603  0019                     	;# 
   604  0019                     	;# 
   605  001A                     	;# 
   606  001B                     	;# 
   607  001C                     	;# 
   608  001D                     	;# 
   609  001E                     	;# 
   610  001F                     	;# 
   611  008C                     	;# 
   612  008E                     	;# 
   613  0090                     	;# 
   614  0091                     	;# 
   615  0092                     	;# 
   616  0093                     	;# 
   617  0094                     	;# 
   618  0097                     	;# 
   619  009B                     	;# 
   620  009B                     	;# 
   621  009C                     	;# 
   622  009D                     	;# 
   623  009E                     	;# 
   624  009F                     	;# 
   625  010C                     	;# 
   626  010E                     	;# 
   627  0111                     	;# 
   628  0112                     	;# 
   629  0113                     	;# 
   630  0114                     	;# 
   631  0115                     	;# 
   632  0116                     	;# 
   633  0117                     	;# 
   634  0118                     	;# 
   635  0119                     	;# 
   636  018C                     	;# 
   637  018E                     	;# 
   638  0197                     	;# 
   639  0199                     	;# 
   640  0199                     	;# 
   641  0199                     	;# 
   642  019A                     	;# 
   643  019A                     	;# 
   644  019A                     	;# 
   645  019B                     	;# 
   646  019B                     	;# 
   647  019B                     	;# 
   648  019B                     	;# 
   649  019B                     	;# 
   650  019C                     	;# 
   651  019C                     	;# 
   652  019C                     	;# 
   653  019D                     	;# 
   654  019D                     	;# 
   655  019D                     	;# 
   656  019E                     	;# 
   657  019E                     	;# 
   658  019E                     	;# 
   659  019F                     	;# 
   660  019F                     	;# 
   661  019F                     	;# 
   662  019F                     	;# 
   663  019F                     	;# 
   664  020C                     	;# 
   665  020E                     	;# 
   666  0211                     	;# 
   667  0211                     	;# 
   668  0212                     	;# 
   669  0212                     	;# 
   670  0213                     	;# 
   671  0213                     	;# 
   672  0214                     	;# 
   673  0214                     	;# 
   674  0215                     	;# 
   675  0215                     	;# 
   676  0215                     	;# 
   677  0215                     	;# 
   678  0216                     	;# 
   679  0216                     	;# 
   680  0217                     	;# 
   681  0217                     	;# 
   682  028C                     	;# 
   683  028E                     	;# 
   684  0291                     	;# 
   685  0291                     	;# 
   686  0292                     	;# 
   687  0293                     	;# 
   688  0294                     	;# 
   689  0295                     	;# 
   690  0295                     	;# 
   691  0296                     	;# 
   692  0297                     	;# 
   693  0298                     	;# 
   694  030C                     	;# 
   695  030E                     	;# 
   696  038C                     	;# 
   697  038E                     	;# 
   698  0391                     	;# 
   699  0392                     	;# 
   700  0393                     	;# 
   701  0397                     	;# 
   702  0398                     	;# 
   703  0399                     	;# 
   704  039A                     	;# 
   705  039C                     	;# 
   706  039D                     	;# 
   707  039E                     	;# 
   708  039F                     	;# 
   709  0498                     	;# 
   710  0498                     	;# 
   711  0499                     	;# 
   712  049A                     	;# 
   713  049B                     	;# 
   714  049B                     	;# 
   715  049C                     	;# 
   716  049D                     	;# 
   717  049E                     	;# 
   718  049F                     	;# 
   719  0617                     	;# 
   720  0618                     	;# 
   721  0619                     	;# 
   722  0619                     	;# 
   723  061A                     	;# 
   724  061B                     	;# 
   725  061C                     	;# 
   726  061C                     	;# 
   727  0691                     	;# 
   728  0692                     	;# 
   729  0693                     	;# 
   730  0694                     	;# 
   731  0695                     	;# 
   732  0696                     	;# 
   733  0697                     	;# 
   734  0698                     	;# 
   735  0699                     	;# 
   736  0891                     	;# 
   737  0891                     	;# 
   738  0891                     	;# 
   739  0891                     	;# 
   740  0891                     	;# 
   741  0891                     	;# 
   742  0892                     	;# 
   743  0892                     	;# 
   744  0892                     	;# 
   745  0893                     	;# 
   746  0893                     	;# 
   747  0893                     	;# 
   748  0893                     	;# 
   749  0893                     	;# 
   750  0893                     	;# 
   751  0894                     	;# 
   752  0894                     	;# 
   753  0894                     	;# 
   754  0895                     	;# 
   755  0895                     	;# 
   756  0895                     	;# 
   757  0896                     	;# 
   758  0896                     	;# 
   759  0896                     	;# 
   760  089B                     	;# 
   761  0911                     	;# 
   762  0912                     	;# 
   763  0913                     	;# 
   764  0914                     	;# 
   765  0915                     	;# 
   766  0916                     	;# 
   767  0918                     	;# 
   768  0919                     	;# 
   769  091A                     	;# 
   770  091B                     	;# 
   771  091C                     	;# 
   772  091D                     	;# 
   773  091E                     	;# 
   774  091F                     	;# 
   775  0E0F                     	;# 
   776  0E10                     	;# 
   777  0E11                     	;# 
   778  0E12                     	;# 
   779  0E13                     	;# 
   780  0E14                     	;# 
   781  0E15                     	;# 
   782  0E18                     	;# 
   783  0E1A                     	;# 
   784  0E1B                     	;# 
   785  0E1C                     	;# 
   786  0E20                     	;# 
   787  0E21                     	;# 
   788  0E22                     	;# 
   789  0E24                     	;# 
   790  0E25                     	;# 
   791  0E28                     	;# 
   792  0E29                     	;# 
   793  0E2A                     	;# 
   794  0E2B                     	;# 
   795  0E90                     	;# 
   796  0E91                     	;# 
   797  0E92                     	;# 
   798  0E94                     	;# 
   799  0E95                     	;# 
   800  0EA0                     	;# 
   801  0EA1                     	;# 
   802  0EA2                     	;# 
   803  0EA3                     	;# 
   804  0EA4                     	;# 
   805  0EA5                     	;# 
   806  0F0F                     	;# 
   807  0F10                     	;# 
   808  0F11                     	;# 
   809  0F12                     	;# 
   810  0F13                     	;# 
   811  0F14                     	;# 
   812  0F15                     	;# 
   813  0F16                     	;# 
   814  0F17                     	;# 
   815  0F18                     	;# 
   816  0F19                     	;# 
   817  0F1A                     	;# 
   818  0F1B                     	;# 
   819  0F1C                     	;# 
   820  0F1D                     	;# 
   821  0F1E                     	;# 
   822  0F1F                     	;# 
   823  0F20                     	;# 
   824  0F21                     	;# 
   825  0F22                     	;# 
   826  0F23                     	;# 
   827  0FE4                     	;# 
   828  0FE5                     	;# 
   829  0FE6                     	;# 
   830  0FE7                     	;# 
   831  0FE8                     	;# 
   832  0FE9                     	;# 
   833  0FEA                     	;# 
   834  0FEB                     	;# 
   835  0FED                     	;# 
   836  0FEE                     	;# 
   837  0FEF                     	;# 
   838  0000                     	;# 
   839  0001                     	;# 
   840  0002                     	;# 
   841  0003                     	;# 
   842  0004                     	;# 
   843  0005                     	;# 
   844  0006                     	;# 
   845  0007                     	;# 
   846  0008                     	;# 
   847  0009                     	;# 
   848  000A                     	;# 
   849  000B                     	;# 
   850  000C                     	;# 
   851  000E                     	;# 
   852  0010                     	;# 
   853  0011                     	;# 
   854  0012                     	;# 
   855  0013                     	;# 
   856  0014                     	;# 
   857  0015                     	;# 
   858  0015                     	;# 
   859  0016                     	;# 
   860  0016                     	;# 
   861  0017                     	;# 
   862  0018                     	;# 
   863  0019                     	;# 
   864  0019                     	;# 
   865  001A                     	;# 
   866  001B                     	;# 
   867  001C                     	;# 
   868  001D                     	;# 
   869  001E                     	;# 
   870  001F                     	;# 
   871  008C                     	;# 
   872  008E                     	;# 
   873  0090                     	;# 
   874  0091                     	;# 
   875  0092                     	;# 
   876  0093                     	;# 
   877  0094                     	;# 
   878  0097                     	;# 
   879  009B                     	;# 
   880  009B                     	;# 
   881  009C                     	;# 
   882  009D                     	;# 
   883  009E                     	;# 
   884  009F                     	;# 
   885  010C                     	;# 
   886  010E                     	;# 
   887  0111                     	;# 
   888  0112                     	;# 
   889  0113                     	;# 
   890  0114                     	;# 
   891  0115                     	;# 
   892  0116                     	;# 
   893  0117                     	;# 
   894  0118                     	;# 
   895  0119                     	;# 
   896  018C                     	;# 
   897  018E                     	;# 
   898  0197                     	;# 
   899  0199                     	;# 
   900  0199                     	;# 
   901  0199                     	;# 
   902  019A                     	;# 
   903  019A                     	;# 
   904  019A                     	;# 
   905  019B                     	;# 
   906  019B                     	;# 
   907  019B                     	;# 
   908  019B                     	;# 
   909  019B                     	;# 
   910  019C                     	;# 
   911  019C                     	;# 
   912  019C                     	;# 
   913  019D                     	;# 
   914  019D                     	;# 
   915  019D                     	;# 
   916  019E                     	;# 
   917  019E                     	;# 
   918  019E                     	;# 
   919  019F                     	;# 
   920  019F                     	;# 
   921  019F                     	;# 
   922  019F                     	;# 
   923  019F                     	;# 
   924  020C                     	;# 
   925  020E                     	;# 
   926  0211                     	;# 
   927  0211                     	;# 
   928  0212                     	;# 
   929  0212                     	;# 
   930  0213                     	;# 
   931  0213                     	;# 
   932  0214                     	;# 
   933  0214                     	;# 
   934  0215                     	;# 
   935  0215                     	;# 
   936  0215                     	;# 
   937  0215                     	;# 
   938  0216                     	;# 
   939  0216                     	;# 
   940  0217                     	;# 
   941  0217                     	;# 
   942  028C                     	;# 
   943  028E                     	;# 
   944  0291                     	;# 
   945  0291                     	;# 
   946  0292                     	;# 
   947  0293                     	;# 
   948  0294                     	;# 
   949  0295                     	;# 
   950  0295                     	;# 
   951  0296                     	;# 
   952  0297                     	;# 
   953  0298                     	;# 
   954  030C                     	;# 
   955  030E                     	;# 
   956  038C                     	;# 
   957  038E                     	;# 
   958  0391                     	;# 
   959  0392                     	;# 
   960  0393                     	;# 
   961  0397                     	;# 
   962  0398                     	;# 
   963  0399                     	;# 
   964  039A                     	;# 
   965  039C                     	;# 
   966  039D                     	;# 
   967  039E                     	;# 
   968  039F                     	;# 
   969  0498                     	;# 
   970  0498                     	;# 
   971  0499                     	;# 
   972  049A                     	;# 
   973  049B                     	;# 
   974  049B                     	;# 
   975  049C                     	;# 
   976  049D                     	;# 
   977  049E                     	;# 
   978  049F                     	;# 
   979  0617                     	;# 
   980  0618                     	;# 
   981  0619                     	;# 
   982  0619                     	;# 
   983  061A                     	;# 
   984  061B                     	;# 
   985  061C                     	;# 
   986  061C                     	;# 
   987  0691                     	;# 
   988  0692                     	;# 
   989  0693                     	;# 
   990  0694                     	;# 
   991  0695                     	;# 
   992  0696                     	;# 
   993  0697                     	;# 
   994  0698                     	;# 
   995  0699                     	;# 
   996  0891                     	;# 
   997  0891                     	;# 
   998  0891                     	;# 
   999  0891                     	;# 
  1000  0891                     	;# 
  1001  0891                     	;# 
  1002  0892                     	;# 
  1003  0892                     	;# 
  1004  0892                     	;# 
  1005  0893                     	;# 
  1006  0893                     	;# 
  1007  0893                     	;# 
  1008  0893                     	;# 
  1009  0893                     	;# 
  1010  0893                     	;# 
  1011  0894                     	;# 
  1012  0894                     	;# 
  1013  0894                     	;# 
  1014  0895                     	;# 
  1015  0895                     	;# 
  1016  0895                     	;# 
  1017  0896                     	;# 
  1018  0896                     	;# 
  1019  0896                     	;# 
  1020  089B                     	;# 
  1021  0911                     	;# 
  1022  0912                     	;# 
  1023  0913                     	;# 
  1024  0914                     	;# 
  1025  0915                     	;# 
  1026  0916                     	;# 
  1027  0918                     	;# 
  1028  0919                     	;# 
  1029  091A                     	;# 
  1030  091B                     	;# 
  1031  091C                     	;# 
  1032  091D                     	;# 
  1033  091E                     	;# 
  1034  091F                     	;# 
  1035  0E0F                     	;# 
  1036  0E10                     	;# 
  1037  0E11                     	;# 
  1038  0E12                     	;# 
  1039  0E13                     	;# 
  1040  0E14                     	;# 
  1041  0E15                     	;# 
  1042  0E18                     	;# 
  1043  0E1A                     	;# 
  1044  0E1B                     	;# 
  1045  0E1C                     	;# 
  1046  0E20                     	;# 
  1047  0E21                     	;# 
  1048  0E22                     	;# 
  1049  0E24                     	;# 
  1050  0E25                     	;# 
  1051  0E28                     	;# 
  1052  0E29                     	;# 
  1053  0E2A                     	;# 
  1054  0E2B                     	;# 
  1055  0E90                     	;# 
  1056  0E91                     	;# 
  1057  0E92                     	;# 
  1058  0E94                     	;# 
  1059  0E95                     	;# 
  1060  0EA0                     	;# 
  1061  0EA1                     	;# 
  1062  0EA2                     	;# 
  1063  0EA3                     	;# 
  1064  0EA4                     	;# 
  1065  0EA5                     	;# 
  1066  0F0F                     	;# 
  1067  0F10                     	;# 
  1068  0F11                     	;# 
  1069  0F12                     	;# 
  1070  0F13                     	;# 
  1071  0F14                     	;# 
  1072  0F15                     	;# 
  1073  0F16                     	;# 
  1074  0F17                     	;# 
  1075  0F18                     	;# 
  1076  0F19                     	;# 
  1077  0F1A                     	;# 
  1078  0F1B                     	;# 
  1079  0F1C                     	;# 
  1080  0F1D                     	;# 
  1081  0F1E                     	;# 
  1082  0F1F                     	;# 
  1083  0F20                     	;# 
  1084  0F21                     	;# 
  1085  0F22                     	;# 
  1086  0F23                     	;# 
  1087  0FE4                     	;# 
  1088  0FE5                     	;# 
  1089  0FE6                     	;# 
  1090  0FE7                     	;# 
  1091  0FE8                     	;# 
  1092  0FE9                     	;# 
  1093  0FEA                     	;# 
  1094  0FEB                     	;# 
  1095  0FED                     	;# 
  1096  0FEE                     	;# 
  1097  0FEF                     	;# 
  1098  0000                     	;# 
  1099  0001                     	;# 
  1100  0002                     	;# 
  1101  0003                     	;# 
  1102  0004                     	;# 
  1103  0005                     	;# 
  1104  0006                     	;# 
  1105  0007                     	;# 
  1106  0008                     	;# 
  1107  0009                     	;# 
  1108  000A                     	;# 
  1109  000B                     	;# 
  1110  000C                     	;# 
  1111  000E                     	;# 
  1112  0010                     	;# 
  1113  0011                     	;# 
  1114  0012                     	;# 
  1115  0013                     	;# 
  1116  0014                     	;# 
  1117  0015                     	;# 
  1118  0015                     	;# 
  1119  0016                     	;# 
  1120  0016                     	;# 
  1121  0017                     	;# 
  1122  0018                     	;# 
  1123  0019                     	;# 
  1124  0019                     	;# 
  1125  001A                     	;# 
  1126  001B                     	;# 
  1127  001C                     	;# 
  1128  001D                     	;# 
  1129  001E                     	;# 
  1130  001F                     	;# 
  1131  008C                     	;# 
  1132  008E                     	;# 
  1133  0090                     	;# 
  1134  0091                     	;# 
  1135  0092                     	;# 
  1136  0093                     	;# 
  1137  0094                     	;# 
  1138  0097                     	;# 
  1139  009B                     	;# 
  1140  009B                     	;# 
  1141  009C                     	;# 
  1142  009D                     	;# 
  1143  009E                     	;# 
  1144  009F                     	;# 
  1145  010C                     	;# 
  1146  010E                     	;# 
  1147  0111                     	;# 
  1148  0112                     	;# 
  1149  0113                     	;# 
  1150  0114                     	;# 
  1151  0115                     	;# 
  1152  0116                     	;# 
  1153  0117                     	;# 
  1154  0118                     	;# 
  1155  0119                     	;# 
  1156  018C                     	;# 
  1157  018E                     	;# 
  1158  0197                     	;# 
  1159  0199                     	;# 
  1160  0199                     	;# 
  1161  0199                     	;# 
  1162  019A                     	;# 
  1163  019A                     	;# 
  1164  019A                     	;# 
  1165  019B                     	;# 
  1166  019B                     	;# 
  1167  019B                     	;# 
  1168  019B                     	;# 
  1169  019B                     	;# 
  1170  019C                     	;# 
  1171  019C                     	;# 
  1172  019C                     	;# 
  1173  019D                     	;# 
  1174  019D                     	;# 
  1175  019D                     	;# 
  1176  019E                     	;# 
  1177  019E                     	;# 
  1178  019E                     	;# 
  1179  019F                     	;# 
  1180  019F                     	;# 
  1181  019F                     	;# 
  1182  019F                     	;# 
  1183  019F                     	;# 
  1184  020C                     	;# 
  1185  020E                     	;# 
  1186  0211                     	;# 
  1187  0211                     	;# 
  1188  0212                     	;# 
  1189  0212                     	;# 
  1190  0213                     	;# 
  1191  0213                     	;# 
  1192  0214                     	;# 
  1193  0214                     	;# 
  1194  0215                     	;# 
  1195  0215                     	;# 
  1196  0215                     	;# 
  1197  0215                     	;# 
  1198  0216                     	;# 
  1199  0216                     	;# 
  1200  0217                     	;# 
  1201  0217                     	;# 
  1202  028C                     	;# 
  1203  028E                     	;# 
  1204  0291                     	;# 
  1205  0291                     	;# 
  1206  0292                     	;# 
  1207  0293                     	;# 
  1208  0294                     	;# 
  1209  0295                     	;# 
  1210  0295                     	;# 
  1211  0296                     	;# 
  1212  0297                     	;# 
  1213  0298                     	;# 
  1214  030C                     	;# 
  1215  030E                     	;# 
  1216  038C                     	;# 
  1217  038E                     	;# 
  1218  0391                     	;# 
  1219  0392                     	;# 
  1220  0393                     	;# 
  1221  0397                     	;# 
  1222  0398                     	;# 
  1223  0399                     	;# 
  1224  039A                     	;# 
  1225  039C                     	;# 
  1226  039D                     	;# 
  1227  039E                     	;# 
  1228  039F                     	;# 
  1229  0498                     	;# 
  1230  0498                     	;# 
  1231  0499                     	;# 
  1232  049A                     	;# 
  1233  049B                     	;# 
  1234  049B                     	;# 
  1235  049C                     	;# 
  1236  049D                     	;# 
  1237  049E                     	;# 
  1238  049F                     	;# 
  1239  0617                     	;# 
  1240  0618                     	;# 
  1241  0619                     	;# 
  1242  0619                     	;# 
  1243  061A                     	;# 
  1244  061B                     	;# 
  1245  061C                     	;# 
  1246  061C                     	;# 
  1247  0691                     	;# 
  1248  0692                     	;# 
  1249  0693                     	;# 
  1250  0694                     	;# 
  1251  0695                     	;# 
  1252  0696                     	;# 
  1253  0697                     	;# 
  1254  0698                     	;# 
  1255  0699                     	;# 
  1256  0891                     	;# 
  1257  0891                     	;# 
  1258  0891                     	;# 
  1259  0891                     	;# 
  1260  0891                     	;# 
  1261  0891                     	;# 
  1262  0892                     	;# 
  1263  0892                     	;# 
  1264  0892                     	;# 
  1265  0893                     	;# 
  1266  0893                     	;# 
  1267  0893                     	;# 
  1268  0893                     	;# 
  1269  0893                     	;# 
  1270  0893                     	;# 
  1271  0894                     	;# 
  1272  0894                     	;# 
  1273  0894                     	;# 
  1274  0895                     	;# 
  1275  0895                     	;# 
  1276  0895                     	;# 
  1277  0896                     	;# 
  1278  0896                     	;# 
  1279  0896                     	;# 
  1280  089B                     	;# 
  1281  0911                     	;# 
  1282  0912                     	;# 
  1283  0913                     	;# 
  1284  0914                     	;# 
  1285  0915                     	;# 
  1286  0916                     	;# 
  1287  0918                     	;# 
  1288  0919                     	;# 
  1289  091A                     	;# 
  1290  091B                     	;# 
  1291  091C                     	;# 
  1292  091D                     	;# 
  1293  091E                     	;# 
  1294  091F                     	;# 
  1295  0E0F                     	;# 
  1296  0E10                     	;# 
  1297  0E11                     	;# 
  1298  0E12                     	;# 
  1299  0E13                     	;# 
  1300  0E14                     	;# 
  1301  0E15                     	;# 
  1302  0E18                     	;# 
  1303  0E1A                     	;# 
  1304  0E1B                     	;# 
  1305  0E1C                     	;# 
  1306  0E20                     	;# 
  1307  0E21                     	;# 
  1308  0E22                     	;# 
  1309  0E24                     	;# 
  1310  0E25                     	;# 
  1311  0E28                     	;# 
  1312  0E29                     	;# 
  1313  0E2A                     	;# 
  1314  0E2B                     	;# 
  1315  0E90                     	;# 
  1316  0E91                     	;# 
  1317  0E92                     	;# 
  1318  0E94                     	;# 
  1319  0E95                     	;# 
  1320  0EA0                     	;# 
  1321  0EA1                     	;# 
  1322  0EA2                     	;# 
  1323  0EA3                     	;# 
  1324  0EA4                     	;# 
  1325  0EA5                     	;# 
  1326  0F0F                     	;# 
  1327  0F10                     	;# 
  1328  0F11                     	;# 
  1329  0F12                     	;# 
  1330  0F13                     	;# 
  1331  0F14                     	;# 
  1332  0F15                     	;# 
  1333  0F16                     	;# 
  1334  0F17                     	;# 
  1335  0F18                     	;# 
  1336  0F19                     	;# 
  1337  0F1A                     	;# 
  1338  0F1B                     	;# 
  1339  0F1C                     	;# 
  1340  0F1D                     	;# 
  1341  0F1E                     	;# 
  1342  0F1F                     	;# 
  1343  0F20                     	;# 
  1344  0F21                     	;# 
  1345  0F22                     	;# 
  1346  0F23                     	;# 
  1347  0FE4                     	;# 
  1348  0FE5                     	;# 
  1349  0FE6                     	;# 
  1350  0FE7                     	;# 
  1351  0FE8                     	;# 
  1352  0FE9                     	;# 
  1353  0FEA                     	;# 
  1354  0FEB                     	;# 
  1355  0FED                     	;# 
  1356  0FEE                     	;# 
  1357  0FEF                     	;# 
  1358                           
  1359                           	psect	nvBANK0
  1360  0028                     __pnvBANK0:
  1361  0028                     _device_ID:
  1362  0028                     	ds	1
  1363  0097                     _WDTCON	set	151
  1364  009D                     _ADCON0bits	set	157
  1365  009D                     _ADCON0	set	157
  1366  009C                     _ADRESH	set	156
  1367  009B                     _ADRESL	set	155
  1368  009F                     _ADACT	set	159
  1369  009E                     _ADCON1	set	158
  1370  008E                     _TRISC	set	142
  1371  008C                     _TRISA	set	140
  1372  010E                     _LATC	set	270
  1373  010C                     _LATA	set	268
  1374  010E                     _LATCbits	set	270
  1375  018C                     _ANSELA	set	396
  1376  018E                     _ANSELC	set	398
  1377  020E                     _WPUC	set	526
  1378  020C                     _WPUA	set	524
  1379  028E                     _ODCONC	set	654
  1380  028C                     _ODCONA	set	652
  1381  030E                     _SLRCONC	set	782
  1382  030C                     _SLRCONA	set	780
  1383  038E                     _INLVLC	set	910
  1384  038C                     _INLVLA	set	908
  1385  0916                     _PMD5	set	2326
  1386  0915                     _PMD4	set	2325
  1387  0914                     _PMD3	set	2324
  1388  0913                     _PMD2	set	2323
  1389  0912                     _PMD1	set	2322
  1390  0911                     _PMD0	set	2321
  1391  091E                     _OSCTUNE	set	2334
  1392  091F                     _OSCFRQ	set	2335
  1393  091D                     _OSCEN	set	2333
  1394  091B                     _OSCCON3	set	2331
  1395  0919                     _OSCCON1	set	2329
  1396                           
  1397                           	psect	cinit
  1398  07FB                     start_initialization:	
  1399                           ; #config settings
  1400                           
  1401  07FB                     __initialization:
  1402                           
  1403                           ; Clear objects allocated to BANK0
  1404  07FB  0020               	movlb	0	; select bank0
  1405  07FC  01A6               	clrf	__pbssBANK0& (0+127)
  1406  07FD  01A7               	clrf	(__pbssBANK0+1)& (0+127)
  1407  07FE                     end_of_initialization:	
  1408                           ;End of C runtime variable initialization code
  1409                           
  1410  07FE                     __end_of__initialization:
  1411  07FE  0020               	movlb	0
  1412  07FF  2F5F               	ljmp	_main	;jump to C main() function
  1413                           
  1414                           	psect	bssBANK0
  1415  0026                     __pbssBANK0:
  1416  0026                     _ADC_InterruptHandler:
  1417  0026                     	ds	2
  1418                           
  1419                           	psect	cstackCOMMON
  1420  0070                     __pcstackCOMMON:
  1421  0070                     ?_SYSTEM_Initialize:
  1422  0070                     ??_SYSTEM_Initialize:	
  1423                           ; 1 bytes @ 0x0
  1424                           
  1425  0070                     ?_ADC_Initialize:	
  1426                           ; 1 bytes @ 0x0
  1427                           
  1428  0070                     ??_ADC_Initialize:	
  1429                           ; 1 bytes @ 0x0
  1430                           
  1431  0070                     ?_Configure_Device_Id:	
  1432                           ; 1 bytes @ 0x0
  1433                           
  1434  0070                     ?_PMD_Initialize:	
  1435                           ; 1 bytes @ 0x0
  1436                           
  1437  0070                     ??_PMD_Initialize:	
  1438                           ; 1 bytes @ 0x0
  1439                           
  1440  0070                     ?_OSCILLATOR_Initialize:	
  1441                           ; 1 bytes @ 0x0
  1442                           
  1443  0070                     ??_OSCILLATOR_Initialize:	
  1444                           ; 1 bytes @ 0x0
  1445                           
  1446  0070                     ?_WDT_Initialize:	
  1447                           ; 1 bytes @ 0x0
  1448                           
  1449  0070                     ??_WDT_Initialize:	
  1450                           ; 1 bytes @ 0x0
  1451                           
  1452  0070                     ?_PIN_MANAGER_Initialize:	
  1453                           ; 1 bytes @ 0x0
  1454                           
  1455  0070                     ??_PIN_MANAGER_Initialize:	
  1456                           ; 1 bytes @ 0x0
  1457                           
  1458  0070                     ?_ADC_GetConversion:	
  1459                           ; 1 bytes @ 0x0
  1460                           
  1461  0070                     ?_main:	
  1462                           ; 2 bytes @ 0x0
  1463                           
  1464                           
  1465                           ; 2 bytes @ 0x0
  1466  0070                     	ds	2
  1467  0072                     ??_ADC_GetConversion:
  1468                           
  1469                           ; 1 bytes @ 0x2
  1470  0072                     	ds	1
  1471  0073                     ADC_GetConversion@channel:
  1472                           
  1473                           ; 1 bytes @ 0x3
  1474  0073                     	ds	1
  1475  0074                     ?___lwdiv:
  1476  0074                     ___lwdiv@divisor:	
  1477                           ; 2 bytes @ 0x4
  1478                           
  1479                           
  1480                           ; 2 bytes @ 0x4
  1481  0074                     	ds	2
  1482  0076                     ___lwdiv@dividend:
  1483                           
  1484                           ; 2 bytes @ 0x6
  1485  0076                     	ds	2
  1486  0078                     ??___lwdiv:
  1487                           
  1488                           ; 1 bytes @ 0x8
  1489  0078                     	ds	1
  1490  0079                     ___lwdiv@quotient:
  1491                           
  1492                           ; 2 bytes @ 0x9
  1493  0079                     	ds	2
  1494  007B                     ___lwdiv@counter:
  1495                           
  1496                           ; 1 bytes @ 0xB
  1497  007B                     	ds	1
  1498  007C                     ??_Configure_Device_Id:
  1499                           
  1500                           ; 1 bytes @ 0xC
  1501  007C                     	ds	2
  1502                           
  1503                           	psect	cstackBANK0
  1504  0020                     __pcstackBANK0:
  1505  0020                     Configure_Device_Id@C1:
  1506                           
  1507                           ; 2 bytes @ 0x0
  1508  0020                     	ds	2
  1509  0022                     Configure_Device_Id@C2:
  1510                           
  1511                           ; 2 bytes @ 0x2
  1512  0022                     	ds	2
  1513  0024                     ??_main:
  1514                           
  1515                           ; 1 bytes @ 0x4
  1516  0024                     	ds	2
  1517                           
  1518                           	psect	maintext
  1519  075F                     __pmaintext:	
  1520 ;;
  1521 ;;Main: autosize = 0, tempsize = 2, incstack = 0, save=0
  1522 ;;
  1523 ;; *************** function _main *****************
  1524 ;; Defined at:
  1525 ;;		line 54 in file "main.c"
  1526 ;; Parameters:    Size  Location     Type
  1527 ;;		None
  1528 ;; Auto vars:     Size  Location     Type
  1529 ;;		None
  1530 ;; Return value:  Size  Location     Type
  1531 ;;                  2   18[None  ] int 
  1532 ;; Registers used:
  1533 ;;		wreg, status,2, status,0, pclath, cstack
  1534 ;; Tracked objects:
  1535 ;;		On entry : B1F/0
  1536 ;;		On exit  : 0/0
  1537 ;;		Unchanged: 0/0
  1538 ;; Data sizes:     COMMON   BANK0   BANK1   BANK2
  1539 ;;      Params:         0       0       0       0
  1540 ;;      Locals:         0       0       0       0
  1541 ;;      Temps:          0       2       0       0
  1542 ;;      Totals:         0       2       0       0
  1543 ;;Total ram usage:        2 bytes
  1544 ;; Hardware stack levels required when called: 2
  1545 ;; This function calls:
  1546 ;;		_ADC_Initialize
  1547 ;;		_Configure_Device_Id
  1548 ;;		_SYSTEM_Initialize
  1549 ;; This function is called by:
  1550 ;;		Startup code after reset
  1551 ;; This function uses a non-reentrant model
  1552 ;;
  1553                           
  1554  075F                     _main:	
  1555                           ;psect for function _main
  1556                           
  1557  075F                     l911:	
  1558                           ;incstack = 0
  1559                           ; Regs used in _main: [wreg+status,2+status,0+pclath+cstack]
  1560                           
  1561                           
  1562                           ;main.c: 57:     SYSTEM_Initialize();
  1563  075F  3187  2719  3187   	fcall	_SYSTEM_Initialize
  1564                           
  1565                           ;main.c: 59:     ADC_Initialize();
  1566  0762  3187  2707  3187   	fcall	_ADC_Initialize
  1567                           
  1568                           ;main.c: 61:     Configure_Device_Id();
  1569  0765  3187  278A  3187   	fcall	_Configure_Device_Id
  1570  0768                     l913:
  1571                           
  1572                           ;main.c: 78:         _delay((unsigned long)((3000)*(1000000/4000.0)));
  1573  0768  3004               	movlw	4
  1574  0769  0020               	movlb	0	; select bank0
  1575  076A  00A5               	movwf	??_main+1
  1576  076B  30CF               	movlw	207
  1577  076C  00A4               	movwf	??_main
  1578  076D  3001               	movlw	1
  1579  076E                     u197:
  1580  076E  0B89               	decfsz	9,f
  1581  076F  2F6E               	goto	u197
  1582  0770  0BA4               	decfsz	??_main,f
  1583  0771  2F6E               	goto	u197
  1584  0772  0BA5               	decfsz	??_main+1,f
  1585  0773  2F6E               	goto	u197
  1586  0774  3200               	nop2
  1587  0775                     l915:
  1588                           
  1589                           ;main.c: 80:        LATCbits.LATC5 ^= 1;
  1590  0775  0022               	movlb	2	; select bank2
  1591  0776  0E0E               	swapf	14,w	;volatile
  1592  0777  0020               	movlb	0	; select bank0
  1593  0778  00A4               	movwf	??_main
  1594  0779  0C24               	rrf	??_main,w
  1595  077A  3901               	andlw	1
  1596  077B  00A4               	movwf	??_main
  1597  077C  3001               	movlw	1
  1598  077D  06A4               	xorwf	??_main,f
  1599  077E  0EA4               	swapf	??_main,f
  1600  077F  0DA4               	rlf	??_main,f
  1601  0780  0022               	movlb	2	; select bank2
  1602  0781  080E               	movf	14,w	;volatile
  1603  0782  0020               	movlb	0	; select bank0
  1604  0783  0624               	xorwf	??_main,w
  1605  0784  39DF               	andlw	-33
  1606  0785  0624               	xorwf	??_main,w
  1607  0786  0022               	movlb	2	; select bank2
  1608  0787  008E               	movwf	14	;volatile
  1609  0788  2F68               	goto	l913
  1610  0789  2801               	ljmp	start
  1611  078A                     __end_of_main:
  1612                           
  1613                           	psect	text1
  1614  0719                     __ptext1:	
  1615 ;; *************** function _SYSTEM_Initialize *****************
  1616 ;; Defined at:
  1617 ;;		line 50 in file "mcc_generated_files/mcc.c"
  1618 ;; Parameters:    Size  Location     Type
  1619 ;;		None
  1620 ;; Auto vars:     Size  Location     Type
  1621 ;;		None
  1622 ;; Return value:  Size  Location     Type
  1623 ;;                  1    wreg      void 
  1624 ;; Registers used:
  1625 ;;		wreg, status,2, status,0, pclath, cstack
  1626 ;; Tracked objects:
  1627 ;;		On entry : 0/0
  1628 ;;		On exit  : 0/0
  1629 ;;		Unchanged: 0/0
  1630 ;; Data sizes:     COMMON   BANK0   BANK1   BANK2
  1631 ;;      Params:         0       0       0       0
  1632 ;;      Locals:         0       0       0       0
  1633 ;;      Temps:          0       0       0       0
  1634 ;;      Totals:         0       0       0       0
  1635 ;;Total ram usage:        0 bytes
  1636 ;; Hardware stack levels used: 1
  1637 ;; Hardware stack levels required when called: 1
  1638 ;; This function calls:
  1639 ;;		_ADC_Initialize
  1640 ;;		_OSCILLATOR_Initialize
  1641 ;;		_PIN_MANAGER_Initialize
  1642 ;;		_PMD_Initialize
  1643 ;;		_WDT_Initialize
  1644 ;; This function is called by:
  1645 ;;		_main
  1646 ;; This function uses a non-reentrant model
  1647 ;;
  1648                           
  1649  0719                     _SYSTEM_Initialize:	
  1650                           ;psect for function _SYSTEM_Initialize
  1651                           
  1652  0719                     l833:	
  1653                           ;incstack = 0
  1654                           ; Regs used in _SYSTEM_Initialize: [wreg+status,2+status,0+pclath+cstack]
  1655                           
  1656                           
  1657                           ;mcc_generated_files/mcc.c: 53:     PMD_Initialize();
  1658  0719  3186  26FF  3187   	fcall	_PMD_Initialize
  1659  071C                     l835:
  1660                           
  1661                           ;mcc_generated_files/mcc.c: 54:     PIN_MANAGER_Initialize();
  1662  071C  3187  2741  3187   	fcall	_PIN_MANAGER_Initialize
  1663  071F                     l837:
  1664                           
  1665                           ;mcc_generated_files/mcc.c: 55:     OSCILLATOR_Initialize();
  1666  071F  3187  2710  3187   	fcall	_OSCILLATOR_Initialize
  1667  0722                     l839:
  1668                           
  1669                           ;mcc_generated_files/mcc.c: 56:     WDT_Initialize();
  1670  0722  3186  26FB  3187   	fcall	_WDT_Initialize
  1671  0725                     l841:
  1672                           
  1673                           ;mcc_generated_files/mcc.c: 57:     ADC_Initialize();
  1674  0725  3187  2707  3187   	fcall	_ADC_Initialize
  1675  0728                     l136:
  1676  0728  0008               	return
  1677  0729                     __end_of_SYSTEM_Initialize:
  1678                           
  1679                           	psect	text2
  1680  06FB                     __ptext2:	
  1681 ;; *************** function _WDT_Initialize *****************
  1682 ;; Defined at:
  1683 ;;		line 74 in file "mcc_generated_files/mcc.c"
  1684 ;; Parameters:    Size  Location     Type
  1685 ;;		None
  1686 ;; Auto vars:     Size  Location     Type
  1687 ;;		None
  1688 ;; Return value:  Size  Location     Type
  1689 ;;                  1    wreg      void 
  1690 ;; Registers used:
  1691 ;;		wreg
  1692 ;; Tracked objects:
  1693 ;;		On entry : 0/0
  1694 ;;		On exit  : 0/0
  1695 ;;		Unchanged: 0/0
  1696 ;; Data sizes:     COMMON   BANK0   BANK1   BANK2
  1697 ;;      Params:         0       0       0       0
  1698 ;;      Locals:         0       0       0       0
  1699 ;;      Temps:          0       0       0       0
  1700 ;;      Totals:         0       0       0       0
  1701 ;;Total ram usage:        0 bytes
  1702 ;; Hardware stack levels used: 1
  1703 ;; This function calls:
  1704 ;;		Nothing
  1705 ;; This function is called by:
  1706 ;;		_SYSTEM_Initialize
  1707 ;; This function uses a non-reentrant model
  1708 ;;
  1709                           
  1710  06FB                     _WDT_Initialize:	
  1711                           ;psect for function _WDT_Initialize
  1712                           
  1713  06FB                     l805:	
  1714                           ;incstack = 0
  1715                           ; Regs used in _WDT_Initialize: [wreg]
  1716                           
  1717                           
  1718                           ;mcc_generated_files/mcc.c: 77:     WDTCON = 0x16;
  1719  06FB  3016               	movlw	22
  1720  06FC  0021               	movlb	1	; select bank1
  1721  06FD  0097               	movwf	23	;volatile
  1722  06FE                     l142:
  1723  06FE  0008               	return
  1724  06FF                     __end_of_WDT_Initialize:
  1725                           
  1726                           	psect	text3
  1727  06FF                     __ptext3:	
  1728 ;; *************** function _PMD_Initialize *****************
  1729 ;; Defined at:
  1730 ;;		line 80 in file "mcc_generated_files/mcc.c"
  1731 ;; Parameters:    Size  Location     Type
  1732 ;;		None
  1733 ;; Auto vars:     Size  Location     Type
  1734 ;;		None
  1735 ;; Return value:  Size  Location     Type
  1736 ;;                  1    wreg      void 
  1737 ;; Registers used:
  1738 ;;		status,2
  1739 ;; Tracked objects:
  1740 ;;		On entry : 0/0
  1741 ;;		On exit  : 0/0
  1742 ;;		Unchanged: 0/0
  1743 ;; Data sizes:     COMMON   BANK0   BANK1   BANK2
  1744 ;;      Params:         0       0       0       0
  1745 ;;      Locals:         0       0       0       0
  1746 ;;      Temps:          0       0       0       0
  1747 ;;      Totals:         0       0       0       0
  1748 ;;Total ram usage:        0 bytes
  1749 ;; Hardware stack levels used: 1
  1750 ;; This function calls:
  1751 ;;		Nothing
  1752 ;; This function is called by:
  1753 ;;		_SYSTEM_Initialize
  1754 ;; This function uses a non-reentrant model
  1755 ;;
  1756                           
  1757  06FF                     _PMD_Initialize:	
  1758                           ;psect for function _PMD_Initialize
  1759                           
  1760  06FF                     l795:	
  1761                           ;incstack = 0
  1762                           ; Regs used in _PMD_Initialize: [status,2]
  1763                           
  1764                           
  1765                           ;mcc_generated_files/mcc.c: 83:     PMD0 = 0x00;
  1766  06FF  0032               	movlb	18	; select bank18
  1767  0700  0191               	clrf	17	;volatile
  1768                           
  1769                           ;mcc_generated_files/mcc.c: 85:     PMD1 = 0x00;
  1770  0701  0192               	clrf	18	;volatile
  1771                           
  1772                           ;mcc_generated_files/mcc.c: 87:     PMD2 = 0x00;
  1773  0702  0193               	clrf	19	;volatile
  1774                           
  1775                           ;mcc_generated_files/mcc.c: 89:     PMD3 = 0x00;
  1776  0703  0194               	clrf	20	;volatile
  1777                           
  1778                           ;mcc_generated_files/mcc.c: 91:     PMD4 = 0x00;
  1779  0704  0195               	clrf	21	;volatile
  1780                           
  1781                           ;mcc_generated_files/mcc.c: 93:     PMD5 = 0x00;
  1782  0705  0196               	clrf	22	;volatile
  1783  0706                     l145:
  1784  0706  0008               	return
  1785  0707                     __end_of_PMD_Initialize:
  1786                           
  1787                           	psect	text4
  1788  0741                     __ptext4:	
  1789 ;; *************** function _PIN_MANAGER_Initialize *****************
  1790 ;; Defined at:
  1791 ;;		line 55 in file "mcc_generated_files/pin_manager.c"
  1792 ;; Parameters:    Size  Location     Type
  1793 ;;		None
  1794 ;; Auto vars:     Size  Location     Type
  1795 ;;		None
  1796 ;; Return value:  Size  Location     Type
  1797 ;;                  1    wreg      void 
  1798 ;; Registers used:
  1799 ;;		wreg, status,2
  1800 ;; Tracked objects:
  1801 ;;		On entry : 0/0
  1802 ;;		On exit  : 0/0
  1803 ;;		Unchanged: 0/0
  1804 ;; Data sizes:     COMMON   BANK0   BANK1   BANK2
  1805 ;;      Params:         0       0       0       0
  1806 ;;      Locals:         0       0       0       0
  1807 ;;      Temps:          0       0       0       0
  1808 ;;      Totals:         0       0       0       0
  1809 ;;Total ram usage:        0 bytes
  1810 ;; Hardware stack levels used: 1
  1811 ;; This function calls:
  1812 ;;		Nothing
  1813 ;; This function is called by:
  1814 ;;		_SYSTEM_Initialize
  1815 ;; This function uses a non-reentrant model
  1816 ;;
  1817                           
  1818  0741                     _PIN_MANAGER_Initialize:	
  1819                           ;psect for function _PIN_MANAGER_Initialize
  1820                           
  1821  0741                     l777:	
  1822                           ;incstack = 0
  1823                           ; Regs used in _PIN_MANAGER_Initialize: [wreg+status,2]
  1824                           
  1825                           
  1826                           ;mcc_generated_files/pin_manager.c: 60:     LATA = 0x00;
  1827  0741  0022               	movlb	2	; select bank2
  1828  0742  018C               	clrf	12	;volatile
  1829                           
  1830                           ;mcc_generated_files/pin_manager.c: 61:     LATC = 0x00;
  1831  0743  018E               	clrf	14	;volatile
  1832  0744                     l779:
  1833                           
  1834                           ;mcc_generated_files/pin_manager.c: 66:     TRISA = 0x17;
  1835  0744  3017               	movlw	23
  1836  0745  0021               	movlb	1	; select bank1
  1837  0746  008C               	movwf	12	;volatile
  1838  0747                     l781:
  1839                           
  1840                           ;mcc_generated_files/pin_manager.c: 67:     TRISC = 0x1F;
  1841  0747  301F               	movlw	31
  1842  0748  008E               	movwf	14	;volatile
  1843  0749                     l783:
  1844                           
  1845                           ;mcc_generated_files/pin_manager.c: 72:     ANSELC = 0x0F;
  1846  0749  300F               	movlw	15
  1847  074A  0023               	movlb	3	; select bank3
  1848  074B  008E               	movwf	14	;volatile
  1849  074C                     l785:
  1850                           
  1851                           ;mcc_generated_files/pin_manager.c: 73:     ANSELA = 0x17;
  1852  074C  3017               	movlw	23
  1853  074D  008C               	movwf	12	;volatile
  1854                           
  1855                           ;mcc_generated_files/pin_manager.c: 78:     WPUA = 0x00;
  1856  074E  0024               	movlb	4	; select bank4
  1857  074F  018C               	clrf	12	;volatile
  1858                           
  1859                           ;mcc_generated_files/pin_manager.c: 79:     WPUC = 0x00;
  1860  0750  018E               	clrf	14	;volatile
  1861                           
  1862                           ;mcc_generated_files/pin_manager.c: 84:     ODCONA = 0x00;
  1863  0751  0025               	movlb	5	; select bank5
  1864  0752  018C               	clrf	12	;volatile
  1865                           
  1866                           ;mcc_generated_files/pin_manager.c: 85:     ODCONC = 0x00;
  1867  0753  018E               	clrf	14	;volatile
  1868  0754                     l787:
  1869                           
  1870                           ;mcc_generated_files/pin_manager.c: 90:     SLRCONA = 0x37;
  1871  0754  3037               	movlw	55
  1872  0755  0026               	movlb	6	; select bank6
  1873  0756  008C               	movwf	12	;volatile
  1874  0757                     l789:
  1875                           
  1876                           ;mcc_generated_files/pin_manager.c: 91:     SLRCONC = 0x3F;
  1877  0757  303F               	movlw	63
  1878  0758  008E               	movwf	14	;volatile
  1879  0759                     l791:
  1880                           
  1881                           ;mcc_generated_files/pin_manager.c: 96:     INLVLA = 0x3F;
  1882  0759  303F               	movlw	63
  1883  075A  0027               	movlb	7	; select bank7
  1884  075B  008C               	movwf	12	;volatile
  1885  075C                     l793:
  1886                           
  1887                           ;mcc_generated_files/pin_manager.c: 97:     INLVLC = 0x3F;
  1888  075C  303F               	movlw	63
  1889  075D  008E               	movwf	14	;volatile
  1890  075E                     l56:
  1891  075E  0008               	return
  1892  075F                     __end_of_PIN_MANAGER_Initialize:
  1893                           
  1894                           	psect	text5
  1895  0710                     __ptext5:	
  1896 ;; *************** function _OSCILLATOR_Initialize *****************
  1897 ;; Defined at:
  1898 ;;		line 60 in file "mcc_generated_files/mcc.c"
  1899 ;; Parameters:    Size  Location     Type
  1900 ;;		None
  1901 ;; Auto vars:     Size  Location     Type
  1902 ;;		None
  1903 ;; Return value:  Size  Location     Type
  1904 ;;                  1    wreg      void 
  1905 ;; Registers used:
  1906 ;;		wreg, status,2
  1907 ;; Tracked objects:
  1908 ;;		On entry : 0/0
  1909 ;;		On exit  : 0/0
  1910 ;;		Unchanged: 0/0
  1911 ;; Data sizes:     COMMON   BANK0   BANK1   BANK2
  1912 ;;      Params:         0       0       0       0
  1913 ;;      Locals:         0       0       0       0
  1914 ;;      Temps:          0       0       0       0
  1915 ;;      Totals:         0       0       0       0
  1916 ;;Total ram usage:        0 bytes
  1917 ;; Hardware stack levels used: 1
  1918 ;; This function calls:
  1919 ;;		Nothing
  1920 ;; This function is called by:
  1921 ;;		_SYSTEM_Initialize
  1922 ;; This function uses a non-reentrant model
  1923 ;;
  1924                           
  1925  0710                     _OSCILLATOR_Initialize:	
  1926                           ;psect for function _OSCILLATOR_Initialize
  1927                           
  1928  0710                     l797:	
  1929                           ;incstack = 0
  1930                           ; Regs used in _OSCILLATOR_Initialize: [wreg+status,2]
  1931                           
  1932                           
  1933                           ;mcc_generated_files/mcc.c: 63:     OSCCON1 = 0x62;
  1934  0710  3062               	movlw	98
  1935  0711  0032               	movlb	18	; select bank18
  1936  0712  0099               	movwf	25	;volatile
  1937  0713                     l799:
  1938                           
  1939                           ;mcc_generated_files/mcc.c: 65:     OSCCON3 = 0x00;
  1940  0713  019B               	clrf	27	;volatile
  1941  0714                     l801:
  1942                           
  1943                           ;mcc_generated_files/mcc.c: 67:     OSCEN = 0x00;
  1944  0714  019D               	clrf	29	;volatile
  1945                           
  1946                           ;mcc_generated_files/mcc.c: 69:     OSCFRQ = 0x03;
  1947  0715  3003               	movlw	3
  1948  0716  009F               	movwf	31	;volatile
  1949  0717                     l803:
  1950                           
  1951                           ;mcc_generated_files/mcc.c: 71:     OSCTUNE = 0x00;
  1952  0717  019E               	clrf	30	;volatile
  1953  0718                     l139:
  1954  0718  0008               	return
  1955  0719                     __end_of_OSCILLATOR_Initialize:
  1956                           
  1957                           	psect	text6
  1958  0707                     __ptext6:	
  1959 ;; *************** function _ADC_Initialize *****************
  1960 ;; Defined at:
  1961 ;;		line 67 in file "mcc_generated_files/adc.c"
  1962 ;; Parameters:    Size  Location     Type
  1963 ;;		None
  1964 ;; Auto vars:     Size  Location     Type
  1965 ;;		None
  1966 ;; Return value:  Size  Location     Type
  1967 ;;                  1    wreg      void 
  1968 ;; Registers used:
  1969 ;;		wreg, status,2
  1970 ;; Tracked objects:
  1971 ;;		On entry : 0/0
  1972 ;;		On exit  : 0/0
  1973 ;;		Unchanged: 0/0
  1974 ;; Data sizes:     COMMON   BANK0   BANK1   BANK2
  1975 ;;      Params:         0       0       0       0
  1976 ;;      Locals:         0       0       0       0
  1977 ;;      Temps:          0       0       0       0
  1978 ;;      Totals:         0       0       0       0
  1979 ;;Total ram usage:        0 bytes
  1980 ;; Hardware stack levels used: 1
  1981 ;; This function calls:
  1982 ;;		Nothing
  1983 ;; This function is called by:
  1984 ;;		_main
  1985 ;;		_SYSTEM_Initialize
  1986 ;; This function uses a non-reentrant model
  1987 ;;
  1988                           
  1989  0707                     _ADC_Initialize:	
  1990                           ;psect for function _ADC_Initialize
  1991                           
  1992  0707                     l755:	
  1993                           ;incstack = 0
  1994                           ; Regs used in _ADC_Initialize: [wreg+status,2]
  1995                           
  1996                           
  1997                           ;mcc_generated_files/adc.c: 72:     ADCON1 = 0x80;
  1998  0707  3080               	movlw	128
  1999  0708  0021               	movlb	1	; select bank1
  2000  0709  009E               	movwf	30	;volatile
  2001  070A                     l757:
  2002                           
  2003                           ;mcc_generated_files/adc.c: 75:     ADACT = 0x00;
  2004  070A  019F               	clrf	31	;volatile
  2005  070B                     l759:
  2006                           
  2007                           ;mcc_generated_files/adc.c: 78:     ADRESL = 0x00;
  2008  070B  019B               	clrf	27	;volatile
  2009  070C                     l761:
  2010                           
  2011                           ;mcc_generated_files/adc.c: 81:     ADRESH = 0x00;
  2012  070C  019C               	clrf	28	;volatile
  2013  070D                     l763:
  2014                           
  2015                           ;mcc_generated_files/adc.c: 84:     ADCON0 = 0x01;
  2016  070D  3001               	movlw	1
  2017  070E  009D               	movwf	29	;volatile
  2018  070F                     l78:
  2019  070F  0008               	return
  2020  0710                     __end_of_ADC_Initialize:
  2021                           
  2022                           	psect	text7
  2023  078A                     __ptext7:	
  2024 ;; *************** function _Configure_Device_Id *****************
  2025 ;; Defined at:
  2026 ;;		line 85 in file "main.c"
  2027 ;; Parameters:    Size  Location     Type
  2028 ;;		None
  2029 ;; Auto vars:     Size  Location     Type
  2030 ;;  C2              2    2[BANK0 ] unsigned short 
  2031 ;;  C1              2    0[BANK0 ] unsigned short 
  2032 ;; Return value:  Size  Location     Type
  2033 ;;                  1    wreg      void 
  2034 ;; Registers used:
  2035 ;;		wreg, status,2, status,0, pclath, cstack
  2036 ;; Tracked objects:
  2037 ;;		On entry : 0/0
  2038 ;;		On exit  : 0/0
  2039 ;;		Unchanged: 0/0
  2040 ;; Data sizes:     COMMON   BANK0   BANK1   BANK2
  2041 ;;      Params:         0       0       0       0
  2042 ;;      Locals:         0       4       0       0
  2043 ;;      Temps:          2       0       0       0
  2044 ;;      Totals:         2       4       0       0
  2045 ;;Total ram usage:        6 bytes
  2046 ;; Hardware stack levels used: 1
  2047 ;; Hardware stack levels required when called: 1
  2048 ;; This function calls:
  2049 ;;		_ADC_GetConversion
  2050 ;;		___lwdiv
  2051 ;; This function is called by:
  2052 ;;		_main
  2053 ;; This function uses a non-reentrant model
  2054 ;;
  2055                           
  2056  078A                     _Configure_Device_Id:	
  2057                           ;psect for function _Configure_Device_Id
  2058                           
  2059  078A                     l907:	
  2060                           ;incstack = 0
  2061                           ; Regs used in _Configure_Device_Id: [wreg+status,2+status,0+pclath+cstack]
  2062                           
  2063                           
  2064                           ;main.c: 90:     unsigned short C1 = ADC_GetConversion(ID_3)/200;
  2065  078A  30C8               	movlw	200
  2066  078B  00F4               	movwf	___lwdiv@divisor
  2067  078C  3000               	movlw	0
  2068  078D  00F5               	movwf	___lwdiv@divisor+1
  2069  078E  3011               	movlw	17
  2070  078F  3187  2729  3187   	fcall	_ADC_GetConversion
  2071  0792  0871               	movf	?_ADC_GetConversion+1,w
  2072  0793  00F7               	movwf	___lwdiv@dividend+1
  2073  0794  0870               	movf	?_ADC_GetConversion,w
  2074  0795  00F6               	movwf	___lwdiv@dividend
  2075  0796  3187  27BF  3187   	fcall	___lwdiv
  2076  0799  0875               	movf	?___lwdiv+1,w
  2077  079A  0020               	movlb	0	; select bank0
  2078  079B  00A1               	movwf	Configure_Device_Id@C1+1
  2079  079C  0874               	movf	?___lwdiv,w
  2080  079D  00A0               	movwf	Configure_Device_Id@C1
  2081                           
  2082                           ;main.c: 91:     unsigned short C2 = ADC_GetConversion(ID_4)/200;
  2083  079E  30C8               	movlw	200
  2084  079F  00F4               	movwf	___lwdiv@divisor
  2085  07A0  3000               	movlw	0
  2086  07A1  00F5               	movwf	___lwdiv@divisor+1
  2087  07A2  3012               	movlw	18
  2088  07A3  3187  2729  3187   	fcall	_ADC_GetConversion
  2089  07A6  0871               	movf	?_ADC_GetConversion+1,w
  2090  07A7  00F7               	movwf	___lwdiv@dividend+1
  2091  07A8  0870               	movf	?_ADC_GetConversion,w
  2092  07A9  00F6               	movwf	___lwdiv@dividend
  2093  07AA  3187  27BF  3187   	fcall	___lwdiv
  2094  07AD  0875               	movf	?___lwdiv+1,w
  2095  07AE  0020               	movlb	0	; select bank0
  2096  07AF  00A3               	movwf	Configure_Device_Id@C2+1
  2097  07B0  0874               	movf	?___lwdiv,w
  2098  07B1  00A2               	movwf	Configure_Device_Id@C2
  2099  07B2                     l909:
  2100                           
  2101                           ;main.c: 93:     device_ID = (C1<<3 | C2);
  2102  07B2  0820               	movf	Configure_Device_Id@C1,w
  2103  07B3  00FC               	movwf	??_Configure_Device_Id
  2104  07B4  3002               	movlw	2
  2105  07B5                     u185:
  2106  07B5  35FC               	lslf	??_Configure_Device_Id,f
  2107  07B6  3EFF               	addlw	-1
  2108  07B7  1D03               	skipz
  2109  07B8  2FB5               	goto	u185
  2110  07B9  357C               	lslf	??_Configure_Device_Id,w
  2111  07BA  0422               	iorwf	Configure_Device_Id@C2,w
  2112  07BB  00FD               	movwf	??_Configure_Device_Id+1
  2113  07BC  087D               	movf	??_Configure_Device_Id+1,w
  2114  07BD  00A8               	movwf	_device_ID
  2115  07BE                     l25:
  2116  07BE  0008               	return
  2117  07BF                     __end_of_Configure_Device_Id:
  2118                           
  2119                           	psect	text8
  2120  07BF                     __ptext8:	
  2121 ;; *************** function ___lwdiv *****************
  2122 ;; Defined at:
  2123 ;;		line 5 in file "D:\Softwares\Microchip\xc8\v2.36\pic\sources\c99\common\lwdiv.c"
  2124 ;; Parameters:    Size  Location     Type
  2125 ;;  divisor         2    4[COMMON] unsigned int 
  2126 ;;  dividend        2    6[COMMON] unsigned int 
  2127 ;; Auto vars:     Size  Location     Type
  2128 ;;  quotient        2    9[COMMON] unsigned int 
  2129 ;;  counter         1   11[COMMON] unsigned char 
  2130 ;; Return value:  Size  Location     Type
  2131 ;;                  2    4[COMMON] unsigned int 
  2132 ;; Registers used:
  2133 ;;		wreg, status,2, status,0
  2134 ;; Tracked objects:
  2135 ;;		On entry : 0/0
  2136 ;;		On exit  : 0/0
  2137 ;;		Unchanged: 0/0
  2138 ;; Data sizes:     COMMON   BANK0   BANK1   BANK2
  2139 ;;      Params:         4       0       0       0
  2140 ;;      Locals:         3       0       0       0
  2141 ;;      Temps:          1       0       0       0
  2142 ;;      Totals:         8       0       0       0
  2143 ;;Total ram usage:        8 bytes
  2144 ;; Hardware stack levels used: 1
  2145 ;; This function calls:
  2146 ;;		Nothing
  2147 ;; This function is called by:
  2148 ;;		_Configure_Device_Id
  2149 ;; This function uses a non-reentrant model
  2150 ;;
  2151                           
  2152  07BF                     ___lwdiv:	
  2153                           ;psect for function ___lwdiv
  2154                           
  2155  07BF                     l881:	
  2156                           ;incstack = 0
  2157                           ; Regs used in ___lwdiv: [wreg+status,2+status,0]
  2158                           
  2159  07BF  01F9               	clrf	___lwdiv@quotient
  2160  07C0  01FA               	clrf	___lwdiv@quotient+1
  2161  07C1                     l883:
  2162  07C1  0874               	movf	___lwdiv@divisor,w
  2163  07C2  0475               	iorwf	___lwdiv@divisor+1,w
  2164  07C3  1903               	btfsc	3,2
  2165  07C4  2FC6               	goto	u111
  2166  07C5  2FC7               	goto	u110
  2167  07C6                     u111:
  2168  07C6  2FF6               	goto	l903
  2169  07C7                     u110:
  2170  07C7                     l885:
  2171  07C7  01FB               	clrf	___lwdiv@counter
  2172  07C8  0AFB               	incf	___lwdiv@counter,f
  2173  07C9  2FD3               	goto	l891
  2174  07CA                     l887:
  2175  07CA  3001               	movlw	1
  2176  07CB                     u125:
  2177  07CB  35F4               	lslf	___lwdiv@divisor,f
  2178  07CC  0DF5               	rlf	___lwdiv@divisor+1,f
  2179  07CD  0B89               	decfsz	9,f
  2180  07CE  2FCB               	goto	u125
  2181  07CF                     l889:
  2182  07CF  3001               	movlw	1
  2183  07D0  00F8               	movwf	??___lwdiv
  2184  07D1  0878               	movf	??___lwdiv,w
  2185  07D2  07FB               	addwf	___lwdiv@counter,f
  2186  07D3                     l891:
  2187  07D3  1FF5               	btfss	___lwdiv@divisor+1,7
  2188  07D4  2FD6               	goto	u131
  2189  07D5  2FD7               	goto	u130
  2190  07D6                     u131:
  2191  07D6  2FCA               	goto	l887
  2192  07D7                     u130:
  2193  07D7                     l893:
  2194  07D7  3001               	movlw	1
  2195  07D8                     u145:
  2196  07D8  35F9               	lslf	___lwdiv@quotient,f
  2197  07D9  0DFA               	rlf	___lwdiv@quotient+1,f
  2198  07DA  0B89               	decfsz	9,f
  2199  07DB  2FD8               	goto	u145
  2200  07DC  0875               	movf	___lwdiv@divisor+1,w
  2201  07DD  0277               	subwf	___lwdiv@dividend+1,w
  2202  07DE  1D03               	skipz
  2203  07DF  2FE2               	goto	u155
  2204  07E0  0874               	movf	___lwdiv@divisor,w
  2205  07E1  0276               	subwf	___lwdiv@dividend,w
  2206  07E2                     u155:
  2207  07E2  1C03               	skipc
  2208  07E3  2FE5               	goto	u151
  2209  07E4  2FE6               	goto	u150
  2210  07E5                     u151:
  2211  07E5  2FEB               	goto	l899
  2212  07E6                     u150:
  2213  07E6                     l895:
  2214  07E6  0874               	movf	___lwdiv@divisor,w
  2215  07E7  02F6               	subwf	___lwdiv@dividend,f
  2216  07E8  0875               	movf	___lwdiv@divisor+1,w
  2217  07E9  3BF7               	subwfb	___lwdiv@dividend+1,f
  2218  07EA                     l897:
  2219  07EA  1479               	bsf	___lwdiv@quotient,0
  2220  07EB                     l899:
  2221  07EB  3001               	movlw	1
  2222  07EC                     u165:
  2223  07EC  36F5               	lsrf	___lwdiv@divisor+1,f
  2224  07ED  0CF4               	rrf	___lwdiv@divisor,f
  2225  07EE  0B89               	decfsz	9,f
  2226  07EF  2FEC               	goto	u165
  2227  07F0                     l901:
  2228  07F0  3001               	movlw	1
  2229  07F1  02FB               	subwf	___lwdiv@counter,f
  2230  07F2  1D03               	btfss	3,2
  2231  07F3  2FF5               	goto	u171
  2232  07F4  2FF6               	goto	u170
  2233  07F5                     u171:
  2234  07F5  2FD7               	goto	l893
  2235  07F6                     u170:
  2236  07F6                     l903:
  2237  07F6  087A               	movf	___lwdiv@quotient+1,w
  2238  07F7  00F5               	movwf	?___lwdiv+1
  2239  07F8  0879               	movf	___lwdiv@quotient,w
  2240  07F9  00F4               	movwf	?___lwdiv
  2241  07FA                     l577:
  2242  07FA  0008               	return
  2243  07FB                     __end_of___lwdiv:
  2244                           
  2245                           	psect	text9
  2246  0729                     __ptext9:	
  2247 ;; *************** function _ADC_GetConversion *****************
  2248 ;; Defined at:
  2249 ;;		line 115 in file "mcc_generated_files/adc.c"
  2250 ;; Parameters:    Size  Location     Type
  2251 ;;  channel         1    wreg     enum E4844
  2252 ;; Auto vars:     Size  Location     Type
  2253 ;;  channel         1    3[COMMON] enum E4844
  2254 ;; Return value:  Size  Location     Type
  2255 ;;                  2    0[COMMON] unsigned short 
  2256 ;; Registers used:
  2257 ;;		wreg, status,2, status,0
  2258 ;; Tracked objects:
  2259 ;;		On entry : 0/0
  2260 ;;		On exit  : 0/0
  2261 ;;		Unchanged: 0/0
  2262 ;; Data sizes:     COMMON   BANK0   BANK1   BANK2
  2263 ;;      Params:         2       0       0       0
  2264 ;;      Locals:         1       0       0       0
  2265 ;;      Temps:          1       0       0       0
  2266 ;;      Totals:         4       0       0       0
  2267 ;;Total ram usage:        4 bytes
  2268 ;; Hardware stack levels used: 1
  2269 ;; This function calls:
  2270 ;;		Nothing
  2271 ;; This function is called by:
  2272 ;;		_Configure_Device_Id
  2273 ;; This function uses a non-reentrant model
  2274 ;;
  2275                           
  2276  0729                     _ADC_GetConversion:	
  2277                           ;psect for function _ADC_GetConversion
  2278                           
  2279                           
  2280                           ;incstack = 0
  2281                           ; Regs used in _ADC_GetConversion: [wreg+status,2+status,0]
  2282                           ;ADC_GetConversion@channel stored from wreg
  2283  0729  00F3               	movwf	ADC_GetConversion@channel
  2284  072A                     l869:
  2285                           
  2286                           ;mcc_generated_files/adc.c: 115: adc_result_t ADC_GetConversion(adc_channel_t channel);m
      +                          cc_generated_files/adc.c: 116: {;mcc_generated_files/adc.c: 118:     ADCON0bits.CHS = ch
      +                          annel;
  2287  072A  0873               	movf	ADC_GetConversion@channel,w
  2288  072B  00F2               	movwf	??_ADC_GetConversion
  2289  072C  0DF2               	rlf	??_ADC_GetConversion,f
  2290  072D  0DF2               	rlf	??_ADC_GetConversion,f
  2291  072E  0021               	movlb	1	; select bank1
  2292  072F  081D               	movf	29,w	;volatile
  2293  0730  0672               	xorwf	??_ADC_GetConversion,w
  2294  0731  3903               	andlw	-253
  2295  0732  0672               	xorwf	??_ADC_GetConversion,w
  2296  0733  009D               	movwf	29	;volatile
  2297  0734                     l871:
  2298                           
  2299                           ;mcc_generated_files/adc.c: 121:     ADCON0bits.ADON = 1;
  2300  0734  141D               	bsf	29,0	;volatile
  2301  0735                     l873:
  2302                           
  2303                           ;mcc_generated_files/adc.c: 124:     _delay((unsigned long)((5)*(1000000/4000000.0)));
  2304  0735  0000               	nop
  2305  0736                     l875:
  2306                           
  2307                           ;mcc_generated_files/adc.c: 127:     ADCON0bits.ADGO = 1;
  2308  0736  0021               	movlb	1	; select bank1
  2309  0737  149D               	bsf	29,1	;volatile
  2310  0738                     l93:	
  2311                           ;mcc_generated_files/adc.c: 131:     {;mcc_generated_files/adc.c: 132:     }
  2312                           
  2313                           
  2314                           ;mcc_generated_files/adc.c: 130:     while (ADCON0bits.ADGO)
  2315  0738  189D               	btfsc	29,1	;volatile
  2316  0739  2F3B               	goto	u101
  2317  073A  2F3C               	goto	u100
  2318  073B                     u101:
  2319  073B  2F38               	goto	l93
  2320  073C                     u100:
  2321  073C                     l877:
  2322                           
  2323                           ;mcc_generated_files/adc.c: 135:     return ((adc_result_t)((ADRESH << 8) + ADRESL));
  2324  073C  081C               	movf	28,w	;volatile
  2325  073D  00F1               	movwf	?_ADC_GetConversion+1
  2326  073E  081B               	movf	27,w	;volatile
  2327  073F  00F0               	movwf	?_ADC_GetConversion
  2328  0740                     l96:
  2329  0740  0008               	return
  2330  0741                     __end_of_ADC_GetConversion:
  2331  007E                     btemp	set	126	;btemp
  2332  007E                     wtemp0	set	126
  2333                           
  2334                           	psect	idloc
  2335                           
  2336                           ;Config register IDLOC0 @ 0x8000
  2337                           ;	unspecified, using default values
  2338  8000                     	org	32768
  2339  8000  3FFF               	dw	16383
  2340                           
  2341                           ;Config register IDLOC1 @ 0x8001
  2342                           ;	unspecified, using default values
  2343  8001                     	org	32769
  2344  8001  3FFF               	dw	16383
  2345                           
  2346                           ;Config register IDLOC2 @ 0x8002
  2347                           ;	unspecified, using default values
  2348  8002                     	org	32770
  2349  8002  3FFF               	dw	16383
  2350                           
  2351                           ;Config register IDLOC3 @ 0x8003
  2352                           ;	unspecified, using default values
  2353  8003                     	org	32771
  2354  8003  3FFF               	dw	16383
  2355                           
  2356                           	psect	config
  2357                           
  2358                           ;Config register CONFIG1 @ 0x8007
  2359                           ;	FEXTOSC External Oscillator mode Selection bits
  2360                           ;	FEXTOSC = OFF, Oscillator not enabled
  2361                           ;	Power-up default value for COSC bits
  2362                           ;	RSTOSC = HFINT1, HFINTOSC (1MHz)
  2363                           ;	Clock Out Enable bit
  2364                           ;	CLKOUTEN = OFF, CLKOUT function is disabled; I/O or oscillator function on OSC2
  2365                           ;	Clock Switch Enable bit
  2366                           ;	CSWEN = ON, Writing to NOSC and NDIV is allowed
  2367                           ;	Fail-Safe Clock Monitor Enable
  2368                           ;	FCMEN = ON, Fail-Safe Clock Monitor is enabled
  2369  8007                     	org	32775
  2370  8007  3FEC               	dw	16364
  2371                           
  2372                           ;Config register CONFIG2 @ 0x8008
  2373                           ;	Master Clear Enable bit
  2374                           ;	MCLRE = ON, MCLR/VPP pin function is MCLR; Weak pull-up enabled
  2375                           ;	Power-up Timer Enable bit
  2376                           ;	PWRTE = OFF, PWRT disabled
  2377                           ;	Watchdog Timer Enable bits
  2378                           ;	WDTE = OFF, WDT disabled; SWDTEN is ignored
  2379                           ;	Low-power BOR enable bit
  2380                           ;	LPBOREN = OFF, ULPBOR disabled
  2381                           ;	Brown-out Reset Enable bits
  2382                           ;	BOREN = ON, Brown-out Reset enabled, SBOREN bit ignored
  2383                           ;	Brown-out Reset Voltage selection bit
  2384                           ;	BORV = LOW, Brown-out voltage (Vbor) set to 2.45V
  2385                           ;	PPSLOCK bit One-Way Set Enable bit
  2386                           ;	PPS1WAY = ON, The PPSLOCK bit can be cleared and set only once; PPS registers remain l
      +                          ocked after one clear/set cycle
  2387                           ;	Stack Overflow/Underflow Reset Enable bit
  2388                           ;	STVREN = ON, Stack Overflow or Underflow will cause a Reset
  2389                           ;	Debugger enable bit
  2390                           ;	DEBUG = OFF, Background debugger disabled
  2391  8008                     	org	32776
  2392  8008  3FF3               	dw	16371
  2393                           
  2394                           ;Config register CONFIG3 @ 0x8009
  2395                           ;	User NVM self-write protection bits
  2396                           ;	WRT = OFF, Write protection off
  2397                           ;	Low Voltage Programming Enable bit
  2398                           ;	LVP = ON, Low Voltage programming enabled. MCLR/VPP pin function is MCLR. MCLRE config
      +                          uration bit is ignored.
  2399  8009                     	org	32777
  2400  8009  3FFF               	dw	16383
  2401                           
  2402                           ;Config register CONFIG4 @ 0x800A
  2403                           ;	User NVM Program Memory Code Protection bit
  2404                           ;	CP = OFF, User NVM code protection disabled
  2405                           ;	Data NVM Memory Code Protection bit
  2406                           ;	CPD = OFF, Data NVM code protection disabled
  2407  800A                     	org	32778
  2408  800A  3FFF               	dw	16383

Data Sizes:
    Strings     0
    Constant    0
    Data        0
    BSS         2
    Persistent  33
    Stack       0

Auto Spaces:
    Space          Size  Autos    Used
    COMMON           14     14      14
    BANK0            80      6       9
    BANK1            80      0       0
    BANK2            80      0       0

Pointer List with Targets:

    ADC_InterruptHandler	PTR FTN()void  size(2) Largest target is 1
		 -> Absolute function(), 


Critical Paths under _main in COMMON

    _main->_Configure_Device_Id
    _Configure_Device_Id->___lwdiv
    ___lwdiv->_ADC_GetConversion

Critical Paths under _main in BANK0

    _main->_Configure_Device_Id

Critical Paths under _main in BANK1

    None.

Critical Paths under _main in BANK2

    None.

Call Graph Tables:

 ---------------------------------------------------------------------------------
 (Depth) Function   	        Calls       Base Space   Used Autos Params    Refs
 ---------------------------------------------------------------------------------
 (0) _main                                                 2     2      0     534
                                              4 BANK0      2     2      0
                     _ADC_Initialize
                _Configure_Device_Id
                  _SYSTEM_Initialize
 ---------------------------------------------------------------------------------
 (1) _SYSTEM_Initialize                                    0     0      0       0
                     _ADC_Initialize
              _OSCILLATOR_Initialize
             _PIN_MANAGER_Initialize
                     _PMD_Initialize
                     _WDT_Initialize
 ---------------------------------------------------------------------------------
 (2) _WDT_Initialize                                       0     0      0       0
 ---------------------------------------------------------------------------------
 (2) _PMD_Initialize                                       0     0      0       0
 ---------------------------------------------------------------------------------
 (2) _PIN_MANAGER_Initialize                               0     0      0       0
 ---------------------------------------------------------------------------------
 (2) _OSCILLATOR_Initialize                                0     0      0       0
 ---------------------------------------------------------------------------------
 (2) _ADC_Initialize                                       0     0      0       0
 ---------------------------------------------------------------------------------
 (1) _Configure_Device_Id                                  6     6      0     534
                                             12 COMMON     2     2      0
                                              0 BANK0      4     4      0
                  _ADC_GetConversion
                            ___lwdiv
 ---------------------------------------------------------------------------------
 (2) ___lwdiv                                              8     4      4     466
                                              4 COMMON     8     4      4
                  _ADC_GetConversion (ARG)
 ---------------------------------------------------------------------------------
 (2) _ADC_GetConversion                                    4     2      2      22
                                              0 COMMON     4     2      2
 ---------------------------------------------------------------------------------
 Estimated maximum stack depth 2
 ---------------------------------------------------------------------------------

 Call Graph Graphs:

 _main (ROOT)
   _ADC_Initialize
   _Configure_Device_Id
     _ADC_GetConversion
     ___lwdiv
       _ADC_GetConversion (ARG)
   _SYSTEM_Initialize
     _ADC_Initialize
     _OSCILLATOR_Initialize
     _PIN_MANAGER_Initialize
     _PMD_Initialize
     _WDT_Initialize

 Address spaces:
Name               Size   Autos  Total    Cost      Usage
BIGRAM              F0      0       0       0        0.0%
EEDATA             100      0       0       0        0.0%
NULL                 0      0       0       0        0.0%
CODE                 0      0       0       0        0.0%
BITCOMMON            E      0       0       1        0.0%
BITSFR0              0      0       0       1        0.0%
SFR0                 0      0       0       1        0.0%
COMMON               E      E       E       2      100.0%
BITSFR1              0      0       0       2        0.0%
SFR1                 0      0       0       2        0.0%
BITSFR2              0      0       0       3        0.0%
SFR2                 0      0       0       3        0.0%
STACK                0      0       0       3        0.0%
BITSFR3              0      0       0       4        0.0%
SFR3                 0      0       0       4        0.0%
ABS                  0      0      17       4        0.0%
BITBANK0            50      0       0       5        0.0%
BITSFR4              0      0       0       5        0.0%
SFR4                 0      0       0       5        0.0%
BANK0               50      6       9       6       11.2%
BITSFR5              0      0       0       6        0.0%
SFR5                 0      0       0       6        0.0%
BITBANK1            50      0       0       7        0.0%
BITSFR6              0      0       0       7        0.0%
SFR6                 0      0       0       7        0.0%
BANK1               50      0       0       8        0.0%
BITSFR7              0      0       0       8        0.0%
SFR7                 0      0       0       8        0.0%
BITBANK2            50      0       0       9        0.0%
BITSFR8              0      0       0       9        0.0%
SFR8                 0      0       0       9        0.0%
BANK2               50      0       0      10        0.0%
BITSFR9              0      0       0      10        0.0%
SFR9                 0      0       0      10        0.0%
BITSFR10             0      0       0      11        0.0%
SFR10                0      0       0      11        0.0%
DATA                 0      0      17      11        0.0%
BITSFR11             0      0       0      12        0.0%
SFR11                0      0       0      12        0.0%
BITSFR12             0      0       0      13        0.0%
SFR12                0      0       0      13        0.0%
BITSFR13             0      0       0      14        0.0%
SFR13                0      0       0      14        0.0%
BITSFR14             0      0       0      15        0.0%
SFR14                0      0       0      15        0.0%
BITSFR15             0      0       0      16        0.0%
SFR15                0      0       0      16        0.0%
BITSFR16             0      0       0      17        0.0%
SFR16                0      0       0      17        0.0%
BITSFR17             0      0       0      18        0.0%
SFR17                0      0       0      18        0.0%
BITSFR18             0      0       0      19        0.0%
SFR18                0      0       0      19        0.0%
BITSFR19             0      0       0      20        0.0%
SFR19                0      0       0      20        0.0%
BITSFR20             0      0       0      21        0.0%
SFR20                0      0       0      21        0.0%
BITSFR21             0      0       0      22        0.0%
SFR21                0      0       0      22        0.0%
BITSFR22             0      0       0      23        0.0%
SFR22                0      0       0      23        0.0%
BITSFR23             0      0       0      24        0.0%
SFR23                0      0       0      24        0.0%
BITSFR24             0      0       0      25        0.0%
SFR24                0      0       0      25        0.0%
BITSFR25             0      0       0      26        0.0%
SFR25                0      0       0      26        0.0%
BITSFR26             0      0       0      27        0.0%
SFR26                0      0       0      27        0.0%
BITSFR27             0      0       0      28        0.0%
SFR27                0      0       0      28        0.0%
BITSFR28             0      0       0      29        0.0%
SFR28                0      0       0      29        0.0%
BITSFR29             0      0       0      30        0.0%
SFR29                0      0       0      30        0.0%
BITSFR30             0      0       0      31        0.0%
SFR30                0      0       0      31        0.0%
BITSFR31             0      0       0      32        0.0%
SFR31                0      0       0      32        0.0%


Microchip Technology PIC Macro Assembler V2.36 build 20220127204148 
Symbol Table                                                                                   Sun May 08 14:06:55 2022

                            l25 07BE                              l56 075E                              l93 0738  
                            l78 070F                              l96 0740                             l142 06FE  
                           l136 0728                             l145 0706                             l139 0718  
                           l801 0714                             l803 0717                             l901 07F0  
                           l805 06FB                             l903 07F6                             l911 075F  
                           l577 07FA                             l761 070C                             l841 0725  
                           l833 0719                             l913 0768                             l907 078A  
                           l763 070D                             l755 0707                             l835 071C  
                           l915 0775                             l909 07B2                             l757 070A  
                           l781 0747                             l837 071F                             l871 0734  
                           l759 070B                             l791 0759                             l783 0749  
                           l839 0722                             l873 0735                             l881 07BF  
                           l793 075C                             l785 074C                             l777 0741  
                           l875 0736                             l891 07D3                             l883 07C1  
                           l787 0754                             l779 0744                             l795 06FF  
                           l877 073C                             l869 072A                             l893 07D7  
                           l885 07C7                             l797 0710                             l789 0757  
                           l895 07E6                             l887 07CA                             l799 0713  
                           l897 07EA                             l889 07CF                             l899 07EB  
                           u100 073C                             u101 073B                             u110 07C7  
                           u111 07C6                             u130 07D7                             u131 07D6  
                           u125 07CB                             u150 07E6                             u151 07E5  
                           u145 07D8                             u170 07F6                             u171 07F5  
                           u155 07E2                             u165 07EC                             u185 07B5  
                           u197 076E                             wreg 0009             _Configure_Device_Id 078A  
                          _LATA 010C                            _LATC 010E                            _PMD0 0911  
                          _PMD1 0912                            _PMD2 0913                            _PMD3 0914  
                          _PMD4 0915                            _PMD5 0916                            _WPUA 020C  
                          _WPUC 020E                            _main 075F                            btemp 007E  
                          start 0001            ?_Configure_Device_Id 0070   __end_of_OSCILLATOR_Initialize 0719  
                         _ADACT 009F                           ?_main 0070                 __end_of___lwdiv 07FB  
                         _OSCEN 091D                           _TRISA 008C                           _TRISC 008E  
                _WDT_Initialize 06FB                           status 0003                           wtemp0 007E  
               __initialization 07FB                    __end_of_main 078A           ??_Configure_Device_Id 007C  
                        ??_main 0024          __end_of_WDT_Initialize 06FF                          _ADCON0 009D  
                        _ADCON1 009E                          _ADRESH 009C                          _ADRESL 009B  
                        _ANSELA 018C                          _ANSELC 018E                          _ODCONA 028C  
                        _ODCONC 028E                          _INLVLA 038C                          _INLVLC 038E  
                        _OSCFRQ 091F                          _WDTCON 0097                       ??___lwdiv 0078  
                _PMD_Initialize 06FF                 ?_WDT_Initialize 0070        ADC_GetConversion@channel 0073  
             _SYSTEM_Initialize 0719         __end_of__initialization 07FE              ?_SYSTEM_Initialize 0070  
                __pcstackCOMMON 0070             ??_SYSTEM_Initialize 0070          __end_of_PMD_Initialize 0707  
     __end_of_SYSTEM_Initialize 0729                      __pbssBANK0 0026                      __pmaintext 075F  
               ?_PMD_Initialize 0070                         _OSCCON1 0919                         _OSCCON3 091B  
                       _OSCTUNE 091E                         _SLRCONA 030C                         _SLRCONC 030E  
          _ADC_InterruptHandler 0026                         ___lwdiv 07BF                         __ptext1 0719  
                       __ptext2 06FB                         __ptext3 06FF                         __ptext4 0741  
                       __ptext5 0710                         __ptext6 0707                         __ptext7 078A  
                       __ptext8 07BF                         __ptext9 0729           _OSCILLATOR_Initialize 0710  
      ??_PIN_MANAGER_Initialize 0070            end_of_initialization 07FE     __end_of_Configure_Device_Id 07BF  
              ??_WDT_Initialize 0070           Configure_Device_Id@C1 0020           Configure_Device_Id@C2 0022  
                _ADC_Initialize 0707          ?_OSCILLATOR_Initialize 0070             start_initialization 07FB  
              ??_PMD_Initialize 0070          __end_of_ADC_Initialize 0710                       ___latbits 0000  
                 __pcstackBANK0 0020                       __pnvBANK0 0028                ___lwdiv@dividend 0076  
        _PIN_MANAGER_Initialize 0741                       _device_ID 0028                        ?___lwdiv 0074  
               ?_ADC_Initialize 0070                ___lwdiv@quotient 0079                        _LATCbits 010E  
                    _ADCON0bits 009D               _ADC_GetConversion 0729         ??_OSCILLATOR_Initialize 0070  
            ?_ADC_GetConversion 0070             ??_ADC_GetConversion 0072                 ___lwdiv@divisor 0074  
               ___lwdiv@counter 007B       __end_of_ADC_GetConversion 0741         ?_PIN_MANAGER_Initialize 0070  
              ??_ADC_Initialize 0070  __end_of_PIN_MANAGER_Initialize 075F  
