

Microchip MPLAB XC8 Assembler V2.36 build 20220127204148 
                                                                                               Sat May 14 17:32:58 2022

Microchip MPLAB XC8 C Compiler v2.36 (Free license) build 20220127204148 Og1 
     1                           	processor	16F18323
     2                           	pagewidth 120
     3                           	opt	flic
     4                           	psect	nvBANK0,global,class=BANK0,space=1,delta=1,noexec
     5                           	psect	cinit,global,class=CODE,merge=1,delta=2
     6                           	psect	bssBANK0,global,class=BANK0,space=1,delta=1,noexec
     7                           	psect	cstackCOMMON,global,class=COMMON,space=1,delta=1,noexec
     8                           	psect	cstackBANK0,global,class=BANK0,space=1,delta=1,noexec
     9                           	psect	maintext,global,class=CODE,merge=1,split=1,delta=2
    10                           	psect	text1,local,class=CODE,merge=1,delta=2
    11                           	psect	text2,local,class=CODE,merge=1,delta=2
    12                           	psect	text3,local,class=CODE,merge=1,delta=2,group=1
    13                           	psect	text4,local,class=CODE,merge=1,delta=2,group=1
    14                           	psect	text5,local,class=CODE,merge=1,delta=2,group=1
    15                           	psect	text6,local,class=CODE,merge=1,delta=2,group=1
    16                           	psect	text7,local,class=CODE,merge=1,delta=2,group=1
    17                           	psect	text8,local,class=CODE,merge=1,delta=2
    18                           	psect	text9,local,class=CODE,merge=1,delta=2
    19                           	psect	text10,local,class=CODE,merge=1,delta=2
    20                           	psect	text11,local,class=CODE,merge=1,delta=2
    21                           	psect	text12,local,class=CODE,merge=1,delta=2
    22                           	psect	text13,local,class=CODE,merge=1,delta=2
    23                           	psect	text14,local,class=CODE,merge=1,delta=2
    24                           	psect	text15,local,class=CODE,merge=1,delta=2,group=1
    25                           	psect	text16,local,class=CODE,merge=1,delta=2
    26                           	psect	idloc,global,abs,ovrld,class=IDLOC,space=5,delta=2,noexec
    27                           	psect	config,global,abs,ovrld,class=CONFIG,space=4,delta=2,noexec
    28                           	dabs	1,0x7E,2
    29  0000                     
    30                           ; Version 2.40
    31                           ; Generated 17/02/2022 GMT
    32                           ; 
    33                           ; Copyright © 2022, Microchip Technology Inc. and its subsidiaries ("Microchip")
    34                           ; All rights reserved.
    35                           ; 
    36                           ; This software is developed by Microchip Technology Inc. and its subsidiaries ("Microch
      +                          ip").
    37                           ; 
    38                           ; Redistribution and use in source and binary forms, with or without modification, are
    39                           ; permitted provided that the following conditions are met:
    40                           ; 
    41                           ;     1. Redistributions of source code must retain the above copyright notice, this lis
      +                          t of
    42                           ;        conditions and the following disclaimer.
    43                           ; 
    44                           ;     2. Redistributions in binary form must reproduce the above copyright notice, this 
      +                          list
    45                           ;        of conditions and the following disclaimer in the documentation and/or other
    46                           ;        materials provided with the distribution. Publication is not required when
    47                           ;        this file is used in an embedded application.
    48                           ; 
    49                           ;     3. Microchip's name may not be used to endorse or promote products derived from th
      +                          is
    50                           ;        software without specific prior written permission.
    51                           ; 
    52                           ; THIS SOFTWARE IS PROVIDED BY MICROCHIP "AS IS" AND ANY EXPRESS OR IMPLIED WARRANTIES,
    53                           ; INCLUDING, BUT NOT LIMITED TO, THE IMPLIED WARRANTIES OF MERCHANTABILITY AND FITNESS F
      +                          OR
    54                           ; PURPOSE ARE DISCLAIMED.  IN NO EVENT SHALL MICROCHIP BE LIABLE FOR ANY DIRECT, INDIREC
      +                          T,
    55                           ; INCIDENTAL, SPECIAL, EXEMPLARY, OR CONSEQUENTIAL DAMAGES (INCLUDING BUT NOT LIMITED TO
    56                           ; PROCUREMENT OF SUBSTITUTE GOODS OR SERVICES; LOSS OF USE, DATA OR PROFITS; OR BUSINESS
    57                           ; INTERRUPTION) HOWSOEVER CAUSED AND ON ANY THEORY OF LIABILITY, WHETHER IN CONTRACT, ST
      +                          RICT
    58                           ; LIABILITY, OR TORT (INCLUDING NEGLIGENCE OR OTHERWISE) ARISING IN ANY WAY OUT OF THE U
      +                          SE OF
    59                           ; THIS SOFTWARE, EVEN IF ADVISED OF THE POSSIBILITY OF SUCH DAMAGE.
    60                           ; 
    61                           ; 
    62                           ; Code-generator required, PIC16F18323 Definitions
    63                           ; 
    64                           ; SFR Addresses
    65  0000                     	;# 
    66  0001                     	;# 
    67  0002                     	;# 
    68  0003                     	;# 
    69  0004                     	;# 
    70  0005                     	;# 
    71  0006                     	;# 
    72  0007                     	;# 
    73  0008                     	;# 
    74  0009                     	;# 
    75  000A                     	;# 
    76  000B                     	;# 
    77  000C                     	;# 
    78  000E                     	;# 
    79  0010                     	;# 
    80  0011                     	;# 
    81  0012                     	;# 
    82  0013                     	;# 
    83  0014                     	;# 
    84  0015                     	;# 
    85  0015                     	;# 
    86  0016                     	;# 
    87  0016                     	;# 
    88  0017                     	;# 
    89  0018                     	;# 
    90  0019                     	;# 
    91  0019                     	;# 
    92  001A                     	;# 
    93  001B                     	;# 
    94  001C                     	;# 
    95  001D                     	;# 
    96  001E                     	;# 
    97  001F                     	;# 
    98  008C                     	;# 
    99  008E                     	;# 
   100  0090                     	;# 
   101  0091                     	;# 
   102  0092                     	;# 
   103  0093                     	;# 
   104  0094                     	;# 
   105  0097                     	;# 
   106  009B                     	;# 
   107  009B                     	;# 
   108  009C                     	;# 
   109  009D                     	;# 
   110  009E                     	;# 
   111  009F                     	;# 
   112  010C                     	;# 
   113  010E                     	;# 
   114  0111                     	;# 
   115  0112                     	;# 
   116  0113                     	;# 
   117  0114                     	;# 
   118  0115                     	;# 
   119  0116                     	;# 
   120  0117                     	;# 
   121  0118                     	;# 
   122  0119                     	;# 
   123  018C                     	;# 
   124  018E                     	;# 
   125  0197                     	;# 
   126  0199                     	;# 
   127  0199                     	;# 
   128  0199                     	;# 
   129  019A                     	;# 
   130  019A                     	;# 
   131  019A                     	;# 
   132  019B                     	;# 
   133  019B                     	;# 
   134  019B                     	;# 
   135  019B                     	;# 
   136  019B                     	;# 
   137  019C                     	;# 
   138  019C                     	;# 
   139  019C                     	;# 
   140  019D                     	;# 
   141  019D                     	;# 
   142  019D                     	;# 
   143  019E                     	;# 
   144  019E                     	;# 
   145  019E                     	;# 
   146  019F                     	;# 
   147  019F                     	;# 
   148  019F                     	;# 
   149  019F                     	;# 
   150  019F                     	;# 
   151  020C                     	;# 
   152  020E                     	;# 
   153  0211                     	;# 
   154  0211                     	;# 
   155  0212                     	;# 
   156  0212                     	;# 
   157  0213                     	;# 
   158  0213                     	;# 
   159  0214                     	;# 
   160  0214                     	;# 
   161  0215                     	;# 
   162  0215                     	;# 
   163  0215                     	;# 
   164  0215                     	;# 
   165  0216                     	;# 
   166  0216                     	;# 
   167  0217                     	;# 
   168  0217                     	;# 
   169  028C                     	;# 
   170  028E                     	;# 
   171  0291                     	;# 
   172  0291                     	;# 
   173  0292                     	;# 
   174  0293                     	;# 
   175  0294                     	;# 
   176  0295                     	;# 
   177  0295                     	;# 
   178  0296                     	;# 
   179  0297                     	;# 
   180  0298                     	;# 
   181  030C                     	;# 
   182  030E                     	;# 
   183  038C                     	;# 
   184  038E                     	;# 
   185  0391                     	;# 
   186  0392                     	;# 
   187  0393                     	;# 
   188  0397                     	;# 
   189  0398                     	;# 
   190  0399                     	;# 
   191  039A                     	;# 
   192  039C                     	;# 
   193  039D                     	;# 
   194  039E                     	;# 
   195  039F                     	;# 
   196  0498                     	;# 
   197  0498                     	;# 
   198  0499                     	;# 
   199  049A                     	;# 
   200  049B                     	;# 
   201  049B                     	;# 
   202  049C                     	;# 
   203  049D                     	;# 
   204  049E                     	;# 
   205  049F                     	;# 
   206  0617                     	;# 
   207  0618                     	;# 
   208  0619                     	;# 
   209  0619                     	;# 
   210  061A                     	;# 
   211  061B                     	;# 
   212  061C                     	;# 
   213  061C                     	;# 
   214  0691                     	;# 
   215  0692                     	;# 
   216  0693                     	;# 
   217  0694                     	;# 
   218  0695                     	;# 
   219  0696                     	;# 
   220  0697                     	;# 
   221  0698                     	;# 
   222  0699                     	;# 
   223  0891                     	;# 
   224  0891                     	;# 
   225  0891                     	;# 
   226  0891                     	;# 
   227  0891                     	;# 
   228  0891                     	;# 
   229  0892                     	;# 
   230  0892                     	;# 
   231  0892                     	;# 
   232  0893                     	;# 
   233  0893                     	;# 
   234  0893                     	;# 
   235  0893                     	;# 
   236  0893                     	;# 
   237  0893                     	;# 
   238  0894                     	;# 
   239  0894                     	;# 
   240  0894                     	;# 
   241  0895                     	;# 
   242  0895                     	;# 
   243  0895                     	;# 
   244  0896                     	;# 
   245  0896                     	;# 
   246  0896                     	;# 
   247  089B                     	;# 
   248  0911                     	;# 
   249  0912                     	;# 
   250  0913                     	;# 
   251  0914                     	;# 
   252  0915                     	;# 
   253  0916                     	;# 
   254  0918                     	;# 
   255  0919                     	;# 
   256  091A                     	;# 
   257  091B                     	;# 
   258  091C                     	;# 
   259  091D                     	;# 
   260  091E                     	;# 
   261  091F                     	;# 
   262  0E0F                     	;# 
   263  0E10                     	;# 
   264  0E11                     	;# 
   265  0E12                     	;# 
   266  0E13                     	;# 
   267  0E14                     	;# 
   268  0E15                     	;# 
   269  0E18                     	;# 
   270  0E1A                     	;# 
   271  0E1B                     	;# 
   272  0E1C                     	;# 
   273  0E20                     	;# 
   274  0E21                     	;# 
   275  0E22                     	;# 
   276  0E24                     	;# 
   277  0E25                     	;# 
   278  0E28                     	;# 
   279  0E29                     	;# 
   280  0E2A                     	;# 
   281  0E2B                     	;# 
   282  0E90                     	;# 
   283  0E91                     	;# 
   284  0E92                     	;# 
   285  0E94                     	;# 
   286  0E95                     	;# 
   287  0EA0                     	;# 
   288  0EA1                     	;# 
   289  0EA2                     	;# 
   290  0EA3                     	;# 
   291  0EA4                     	;# 
   292  0EA5                     	;# 
   293  0F0F                     	;# 
   294  0F10                     	;# 
   295  0F11                     	;# 
   296  0F12                     	;# 
   297  0F13                     	;# 
   298  0F14                     	;# 
   299  0F15                     	;# 
   300  0F16                     	;# 
   301  0F17                     	;# 
   302  0F18                     	;# 
   303  0F19                     	;# 
   304  0F1A                     	;# 
   305  0F1B                     	;# 
   306  0F1C                     	;# 
   307  0F1D                     	;# 
   308  0F1E                     	;# 
   309  0F1F                     	;# 
   310  0F20                     	;# 
   311  0F21                     	;# 
   312  0F22                     	;# 
   313  0F23                     	;# 
   314  0FE4                     	;# 
   315  0FE5                     	;# 
   316  0FE6                     	;# 
   317  0FE7                     	;# 
   318  0FE8                     	;# 
   319  0FE9                     	;# 
   320  0FEA                     	;# 
   321  0FEB                     	;# 
   322  0FED                     	;# 
   323  0FEE                     	;# 
   324  0FEF                     	;# 
   325  0000                     	;# 
   326  0001                     	;# 
   327  0002                     	;# 
   328  0003                     	;# 
   329  0004                     	;# 
   330  0005                     	;# 
   331  0006                     	;# 
   332  0007                     	;# 
   333  0008                     	;# 
   334  0009                     	;# 
   335  000A                     	;# 
   336  000B                     	;# 
   337  000C                     	;# 
   338  000E                     	;# 
   339  0010                     	;# 
   340  0011                     	;# 
   341  0012                     	;# 
   342  0013                     	;# 
   343  0014                     	;# 
   344  0015                     	;# 
   345  0015                     	;# 
   346  0016                     	;# 
   347  0016                     	;# 
   348  0017                     	;# 
   349  0018                     	;# 
   350  0019                     	;# 
   351  0019                     	;# 
   352  001A                     	;# 
   353  001B                     	;# 
   354  001C                     	;# 
   355  001D                     	;# 
   356  001E                     	;# 
   357  001F                     	;# 
   358  008C                     	;# 
   359  008E                     	;# 
   360  0090                     	;# 
   361  0091                     	;# 
   362  0092                     	;# 
   363  0093                     	;# 
   364  0094                     	;# 
   365  0097                     	;# 
   366  009B                     	;# 
   367  009B                     	;# 
   368  009C                     	;# 
   369  009D                     	;# 
   370  009E                     	;# 
   371  009F                     	;# 
   372  010C                     	;# 
   373  010E                     	;# 
   374  0111                     	;# 
   375  0112                     	;# 
   376  0113                     	;# 
   377  0114                     	;# 
   378  0115                     	;# 
   379  0116                     	;# 
   380  0117                     	;# 
   381  0118                     	;# 
   382  0119                     	;# 
   383  018C                     	;# 
   384  018E                     	;# 
   385  0197                     	;# 
   386  0199                     	;# 
   387  0199                     	;# 
   388  0199                     	;# 
   389  019A                     	;# 
   390  019A                     	;# 
   391  019A                     	;# 
   392  019B                     	;# 
   393  019B                     	;# 
   394  019B                     	;# 
   395  019B                     	;# 
   396  019B                     	;# 
   397  019C                     	;# 
   398  019C                     	;# 
   399  019C                     	;# 
   400  019D                     	;# 
   401  019D                     	;# 
   402  019D                     	;# 
   403  019E                     	;# 
   404  019E                     	;# 
   405  019E                     	;# 
   406  019F                     	;# 
   407  019F                     	;# 
   408  019F                     	;# 
   409  019F                     	;# 
   410  019F                     	;# 
   411  020C                     	;# 
   412  020E                     	;# 
   413  0211                     	;# 
   414  0211                     	;# 
   415  0212                     	;# 
   416  0212                     	;# 
   417  0213                     	;# 
   418  0213                     	;# 
   419  0214                     	;# 
   420  0214                     	;# 
   421  0215                     	;# 
   422  0215                     	;# 
   423  0215                     	;# 
   424  0215                     	;# 
   425  0216                     	;# 
   426  0216                     	;# 
   427  0217                     	;# 
   428  0217                     	;# 
   429  028C                     	;# 
   430  028E                     	;# 
   431  0291                     	;# 
   432  0291                     	;# 
   433  0292                     	;# 
   434  0293                     	;# 
   435  0294                     	;# 
   436  0295                     	;# 
   437  0295                     	;# 
   438  0296                     	;# 
   439  0297                     	;# 
   440  0298                     	;# 
   441  030C                     	;# 
   442  030E                     	;# 
   443  038C                     	;# 
   444  038E                     	;# 
   445  0391                     	;# 
   446  0392                     	;# 
   447  0393                     	;# 
   448  0397                     	;# 
   449  0398                     	;# 
   450  0399                     	;# 
   451  039A                     	;# 
   452  039C                     	;# 
   453  039D                     	;# 
   454  039E                     	;# 
   455  039F                     	;# 
   456  0498                     	;# 
   457  0498                     	;# 
   458  0499                     	;# 
   459  049A                     	;# 
   460  049B                     	;# 
   461  049B                     	;# 
   462  049C                     	;# 
   463  049D                     	;# 
   464  049E                     	;# 
   465  049F                     	;# 
   466  0617                     	;# 
   467  0618                     	;# 
   468  0619                     	;# 
   469  0619                     	;# 
   470  061A                     	;# 
   471  061B                     	;# 
   472  061C                     	;# 
   473  061C                     	;# 
   474  0691                     	;# 
   475  0692                     	;# 
   476  0693                     	;# 
   477  0694                     	;# 
   478  0695                     	;# 
   479  0696                     	;# 
   480  0697                     	;# 
   481  0698                     	;# 
   482  0699                     	;# 
   483  0891                     	;# 
   484  0891                     	;# 
   485  0891                     	;# 
   486  0891                     	;# 
   487  0891                     	;# 
   488  0891                     	;# 
   489  0892                     	;# 
   490  0892                     	;# 
   491  0892                     	;# 
   492  0893                     	;# 
   493  0893                     	;# 
   494  0893                     	;# 
   495  0893                     	;# 
   496  0893                     	;# 
   497  0893                     	;# 
   498  0894                     	;# 
   499  0894                     	;# 
   500  0894                     	;# 
   501  0895                     	;# 
   502  0895                     	;# 
   503  0895                     	;# 
   504  0896                     	;# 
   505  0896                     	;# 
   506  0896                     	;# 
   507  089B                     	;# 
   508  0911                     	;# 
   509  0912                     	;# 
   510  0913                     	;# 
   511  0914                     	;# 
   512  0915                     	;# 
   513  0916                     	;# 
   514  0918                     	;# 
   515  0919                     	;# 
   516  091A                     	;# 
   517  091B                     	;# 
   518  091C                     	;# 
   519  091D                     	;# 
   520  091E                     	;# 
   521  091F                     	;# 
   522  0E0F                     	;# 
   523  0E10                     	;# 
   524  0E11                     	;# 
   525  0E12                     	;# 
   526  0E13                     	;# 
   527  0E14                     	;# 
   528  0E15                     	;# 
   529  0E18                     	;# 
   530  0E1A                     	;# 
   531  0E1B                     	;# 
   532  0E1C                     	;# 
   533  0E20                     	;# 
   534  0E21                     	;# 
   535  0E22                     	;# 
   536  0E24                     	;# 
   537  0E25                     	;# 
   538  0E28                     	;# 
   539  0E29                     	;# 
   540  0E2A                     	;# 
   541  0E2B                     	;# 
   542  0E90                     	;# 
   543  0E91                     	;# 
   544  0E92                     	;# 
   545  0E94                     	;# 
   546  0E95                     	;# 
   547  0EA0                     	;# 
   548  0EA1                     	;# 
   549  0EA2                     	;# 
   550  0EA3                     	;# 
   551  0EA4                     	;# 
   552  0EA5                     	;# 
   553  0F0F                     	;# 
   554  0F10                     	;# 
   555  0F11                     	;# 
   556  0F12                     	;# 
   557  0F13                     	;# 
   558  0F14                     	;# 
   559  0F15                     	;# 
   560  0F16                     	;# 
   561  0F17                     	;# 
   562  0F18                     	;# 
   563  0F19                     	;# 
   564  0F1A                     	;# 
   565  0F1B                     	;# 
   566  0F1C                     	;# 
   567  0F1D                     	;# 
   568  0F1E                     	;# 
   569  0F1F                     	;# 
   570  0F20                     	;# 
   571  0F21                     	;# 
   572  0F22                     	;# 
   573  0F23                     	;# 
   574  0FE4                     	;# 
   575  0FE5                     	;# 
   576  0FE6                     	;# 
   577  0FE7                     	;# 
   578  0FE8                     	;# 
   579  0FE9                     	;# 
   580  0FEA                     	;# 
   581  0FEB                     	;# 
   582  0FED                     	;# 
   583  0FEE                     	;# 
   584  0FEF                     	;# 
   585  0000                     	;# 
   586  0001                     	;# 
   587  0002                     	;# 
   588  0003                     	;# 
   589  0004                     	;# 
   590  0005                     	;# 
   591  0006                     	;# 
   592  0007                     	;# 
   593  0008                     	;# 
   594  0009                     	;# 
   595  000A                     	;# 
   596  000B                     	;# 
   597  000C                     	;# 
   598  000E                     	;# 
   599  0010                     	;# 
   600  0011                     	;# 
   601  0012                     	;# 
   602  0013                     	;# 
   603  0014                     	;# 
   604  0015                     	;# 
   605  0015                     	;# 
   606  0016                     	;# 
   607  0016                     	;# 
   608  0017                     	;# 
   609  0018                     	;# 
   610  0019                     	;# 
   611  0019                     	;# 
   612  001A                     	;# 
   613  001B                     	;# 
   614  001C                     	;# 
   615  001D                     	;# 
   616  001E                     	;# 
   617  001F                     	;# 
   618  008C                     	;# 
   619  008E                     	;# 
   620  0090                     	;# 
   621  0091                     	;# 
   622  0092                     	;# 
   623  0093                     	;# 
   624  0094                     	;# 
   625  0097                     	;# 
   626  009B                     	;# 
   627  009B                     	;# 
   628  009C                     	;# 
   629  009D                     	;# 
   630  009E                     	;# 
   631  009F                     	;# 
   632  010C                     	;# 
   633  010E                     	;# 
   634  0111                     	;# 
   635  0112                     	;# 
   636  0113                     	;# 
   637  0114                     	;# 
   638  0115                     	;# 
   639  0116                     	;# 
   640  0117                     	;# 
   641  0118                     	;# 
   642  0119                     	;# 
   643  018C                     	;# 
   644  018E                     	;# 
   645  0197                     	;# 
   646  0199                     	;# 
   647  0199                     	;# 
   648  0199                     	;# 
   649  019A                     	;# 
   650  019A                     	;# 
   651  019A                     	;# 
   652  019B                     	;# 
   653  019B                     	;# 
   654  019B                     	;# 
   655  019B                     	;# 
   656  019B                     	;# 
   657  019C                     	;# 
   658  019C                     	;# 
   659  019C                     	;# 
   660  019D                     	;# 
   661  019D                     	;# 
   662  019D                     	;# 
   663  019E                     	;# 
   664  019E                     	;# 
   665  019E                     	;# 
   666  019F                     	;# 
   667  019F                     	;# 
   668  019F                     	;# 
   669  019F                     	;# 
   670  019F                     	;# 
   671  020C                     	;# 
   672  020E                     	;# 
   673  0211                     	;# 
   674  0211                     	;# 
   675  0212                     	;# 
   676  0212                     	;# 
   677  0213                     	;# 
   678  0213                     	;# 
   679  0214                     	;# 
   680  0214                     	;# 
   681  0215                     	;# 
   682  0215                     	;# 
   683  0215                     	;# 
   684  0215                     	;# 
   685  0216                     	;# 
   686  0216                     	;# 
   687  0217                     	;# 
   688  0217                     	;# 
   689  028C                     	;# 
   690  028E                     	;# 
   691  0291                     	;# 
   692  0291                     	;# 
   693  0292                     	;# 
   694  0293                     	;# 
   695  0294                     	;# 
   696  0295                     	;# 
   697  0295                     	;# 
   698  0296                     	;# 
   699  0297                     	;# 
   700  0298                     	;# 
   701  030C                     	;# 
   702  030E                     	;# 
   703  038C                     	;# 
   704  038E                     	;# 
   705  0391                     	;# 
   706  0392                     	;# 
   707  0393                     	;# 
   708  0397                     	;# 
   709  0398                     	;# 
   710  0399                     	;# 
   711  039A                     	;# 
   712  039C                     	;# 
   713  039D                     	;# 
   714  039E                     	;# 
   715  039F                     	;# 
   716  0498                     	;# 
   717  0498                     	;# 
   718  0499                     	;# 
   719  049A                     	;# 
   720  049B                     	;# 
   721  049B                     	;# 
   722  049C                     	;# 
   723  049D                     	;# 
   724  049E                     	;# 
   725  049F                     	;# 
   726  0617                     	;# 
   727  0618                     	;# 
   728  0619                     	;# 
   729  0619                     	;# 
   730  061A                     	;# 
   731  061B                     	;# 
   732  061C                     	;# 
   733  061C                     	;# 
   734  0691                     	;# 
   735  0692                     	;# 
   736  0693                     	;# 
   737  0694                     	;# 
   738  0695                     	;# 
   739  0696                     	;# 
   740  0697                     	;# 
   741  0698                     	;# 
   742  0699                     	;# 
   743  0891                     	;# 
   744  0891                     	;# 
   745  0891                     	;# 
   746  0891                     	;# 
   747  0891                     	;# 
   748  0891                     	;# 
   749  0892                     	;# 
   750  0892                     	;# 
   751  0892                     	;# 
   752  0893                     	;# 
   753  0893                     	;# 
   754  0893                     	;# 
   755  0893                     	;# 
   756  0893                     	;# 
   757  0893                     	;# 
   758  0894                     	;# 
   759  0894                     	;# 
   760  0894                     	;# 
   761  0895                     	;# 
   762  0895                     	;# 
   763  0895                     	;# 
   764  0896                     	;# 
   765  0896                     	;# 
   766  0896                     	;# 
   767  089B                     	;# 
   768  0911                     	;# 
   769  0912                     	;# 
   770  0913                     	;# 
   771  0914                     	;# 
   772  0915                     	;# 
   773  0916                     	;# 
   774  0918                     	;# 
   775  0919                     	;# 
   776  091A                     	;# 
   777  091B                     	;# 
   778  091C                     	;# 
   779  091D                     	;# 
   780  091E                     	;# 
   781  091F                     	;# 
   782  0E0F                     	;# 
   783  0E10                     	;# 
   784  0E11                     	;# 
   785  0E12                     	;# 
   786  0E13                     	;# 
   787  0E14                     	;# 
   788  0E15                     	;# 
   789  0E18                     	;# 
   790  0E1A                     	;# 
   791  0E1B                     	;# 
   792  0E1C                     	;# 
   793  0E20                     	;# 
   794  0E21                     	;# 
   795  0E22                     	;# 
   796  0E24                     	;# 
   797  0E25                     	;# 
   798  0E28                     	;# 
   799  0E29                     	;# 
   800  0E2A                     	;# 
   801  0E2B                     	;# 
   802  0E90                     	;# 
   803  0E91                     	;# 
   804  0E92                     	;# 
   805  0E94                     	;# 
   806  0E95                     	;# 
   807  0EA0                     	;# 
   808  0EA1                     	;# 
   809  0EA2                     	;# 
   810  0EA3                     	;# 
   811  0EA4                     	;# 
   812  0EA5                     	;# 
   813  0F0F                     	;# 
   814  0F10                     	;# 
   815  0F11                     	;# 
   816  0F12                     	;# 
   817  0F13                     	;# 
   818  0F14                     	;# 
   819  0F15                     	;# 
   820  0F16                     	;# 
   821  0F17                     	;# 
   822  0F18                     	;# 
   823  0F19                     	;# 
   824  0F1A                     	;# 
   825  0F1B                     	;# 
   826  0F1C                     	;# 
   827  0F1D                     	;# 
   828  0F1E                     	;# 
   829  0F1F                     	;# 
   830  0F20                     	;# 
   831  0F21                     	;# 
   832  0F22                     	;# 
   833  0F23                     	;# 
   834  0FE4                     	;# 
   835  0FE5                     	;# 
   836  0FE6                     	;# 
   837  0FE7                     	;# 
   838  0FE8                     	;# 
   839  0FE9                     	;# 
   840  0FEA                     	;# 
   841  0FEB                     	;# 
   842  0FED                     	;# 
   843  0FEE                     	;# 
   844  0FEF                     	;# 
   845  0000                     	;# 
   846  0001                     	;# 
   847  0002                     	;# 
   848  0003                     	;# 
   849  0004                     	;# 
   850  0005                     	;# 
   851  0006                     	;# 
   852  0007                     	;# 
   853  0008                     	;# 
   854  0009                     	;# 
   855  000A                     	;# 
   856  000B                     	;# 
   857  000C                     	;# 
   858  000E                     	;# 
   859  0010                     	;# 
   860  0011                     	;# 
   861  0012                     	;# 
   862  0013                     	;# 
   863  0014                     	;# 
   864  0015                     	;# 
   865  0015                     	;# 
   866  0016                     	;# 
   867  0016                     	;# 
   868  0017                     	;# 
   869  0018                     	;# 
   870  0019                     	;# 
   871  0019                     	;# 
   872  001A                     	;# 
   873  001B                     	;# 
   874  001C                     	;# 
   875  001D                     	;# 
   876  001E                     	;# 
   877  001F                     	;# 
   878  008C                     	;# 
   879  008E                     	;# 
   880  0090                     	;# 
   881  0091                     	;# 
   882  0092                     	;# 
   883  0093                     	;# 
   884  0094                     	;# 
   885  0097                     	;# 
   886  009B                     	;# 
   887  009B                     	;# 
   888  009C                     	;# 
   889  009D                     	;# 
   890  009E                     	;# 
   891  009F                     	;# 
   892  010C                     	;# 
   893  010E                     	;# 
   894  0111                     	;# 
   895  0112                     	;# 
   896  0113                     	;# 
   897  0114                     	;# 
   898  0115                     	;# 
   899  0116                     	;# 
   900  0117                     	;# 
   901  0118                     	;# 
   902  0119                     	;# 
   903  018C                     	;# 
   904  018E                     	;# 
   905  0197                     	;# 
   906  0199                     	;# 
   907  0199                     	;# 
   908  0199                     	;# 
   909  019A                     	;# 
   910  019A                     	;# 
   911  019A                     	;# 
   912  019B                     	;# 
   913  019B                     	;# 
   914  019B                     	;# 
   915  019B                     	;# 
   916  019B                     	;# 
   917  019C                     	;# 
   918  019C                     	;# 
   919  019C                     	;# 
   920  019D                     	;# 
   921  019D                     	;# 
   922  019D                     	;# 
   923  019E                     	;# 
   924  019E                     	;# 
   925  019E                     	;# 
   926  019F                     	;# 
   927  019F                     	;# 
   928  019F                     	;# 
   929  019F                     	;# 
   930  019F                     	;# 
   931  020C                     	;# 
   932  020E                     	;# 
   933  0211                     	;# 
   934  0211                     	;# 
   935  0212                     	;# 
   936  0212                     	;# 
   937  0213                     	;# 
   938  0213                     	;# 
   939  0214                     	;# 
   940  0214                     	;# 
   941  0215                     	;# 
   942  0215                     	;# 
   943  0215                     	;# 
   944  0215                     	;# 
   945  0216                     	;# 
   946  0216                     	;# 
   947  0217                     	;# 
   948  0217                     	;# 
   949  028C                     	;# 
   950  028E                     	;# 
   951  0291                     	;# 
   952  0291                     	;# 
   953  0292                     	;# 
   954  0293                     	;# 
   955  0294                     	;# 
   956  0295                     	;# 
   957  0295                     	;# 
   958  0296                     	;# 
   959  0297                     	;# 
   960  0298                     	;# 
   961  030C                     	;# 
   962  030E                     	;# 
   963  038C                     	;# 
   964  038E                     	;# 
   965  0391                     	;# 
   966  0392                     	;# 
   967  0393                     	;# 
   968  0397                     	;# 
   969  0398                     	;# 
   970  0399                     	;# 
   971  039A                     	;# 
   972  039C                     	;# 
   973  039D                     	;# 
   974  039E                     	;# 
   975  039F                     	;# 
   976  0498                     	;# 
   977  0498                     	;# 
   978  0499                     	;# 
   979  049A                     	;# 
   980  049B                     	;# 
   981  049B                     	;# 
   982  049C                     	;# 
   983  049D                     	;# 
   984  049E                     	;# 
   985  049F                     	;# 
   986  0617                     	;# 
   987  0618                     	;# 
   988  0619                     	;# 
   989  0619                     	;# 
   990  061A                     	;# 
   991  061B                     	;# 
   992  061C                     	;# 
   993  061C                     	;# 
   994  0691                     	;# 
   995  0692                     	;# 
   996  0693                     	;# 
   997  0694                     	;# 
   998  0695                     	;# 
   999  0696                     	;# 
  1000  0697                     	;# 
  1001  0698                     	;# 
  1002  0699                     	;# 
  1003  0891                     	;# 
  1004  0891                     	;# 
  1005  0891                     	;# 
  1006  0891                     	;# 
  1007  0891                     	;# 
  1008  0891                     	;# 
  1009  0892                     	;# 
  1010  0892                     	;# 
  1011  0892                     	;# 
  1012  0893                     	;# 
  1013  0893                     	;# 
  1014  0893                     	;# 
  1015  0893                     	;# 
  1016  0893                     	;# 
  1017  0893                     	;# 
  1018  0894                     	;# 
  1019  0894                     	;# 
  1020  0894                     	;# 
  1021  0895                     	;# 
  1022  0895                     	;# 
  1023  0895                     	;# 
  1024  0896                     	;# 
  1025  0896                     	;# 
  1026  0896                     	;# 
  1027  089B                     	;# 
  1028  0911                     	;# 
  1029  0912                     	;# 
  1030  0913                     	;# 
  1031  0914                     	;# 
  1032  0915                     	;# 
  1033  0916                     	;# 
  1034  0918                     	;# 
  1035  0919                     	;# 
  1036  091A                     	;# 
  1037  091B                     	;# 
  1038  091C                     	;# 
  1039  091D                     	;# 
  1040  091E                     	;# 
  1041  091F                     	;# 
  1042  0E0F                     	;# 
  1043  0E10                     	;# 
  1044  0E11                     	;# 
  1045  0E12                     	;# 
  1046  0E13                     	;# 
  1047  0E14                     	;# 
  1048  0E15                     	;# 
  1049  0E18                     	;# 
  1050  0E1A                     	;# 
  1051  0E1B                     	;# 
  1052  0E1C                     	;# 
  1053  0E20                     	;# 
  1054  0E21                     	;# 
  1055  0E22                     	;# 
  1056  0E24                     	;# 
  1057  0E25                     	;# 
  1058  0E28                     	;# 
  1059  0E29                     	;# 
  1060  0E2A                     	;# 
  1061  0E2B                     	;# 
  1062  0E90                     	;# 
  1063  0E91                     	;# 
  1064  0E92                     	;# 
  1065  0E94                     	;# 
  1066  0E95                     	;# 
  1067  0EA0                     	;# 
  1068  0EA1                     	;# 
  1069  0EA2                     	;# 
  1070  0EA3                     	;# 
  1071  0EA4                     	;# 
  1072  0EA5                     	;# 
  1073  0F0F                     	;# 
  1074  0F10                     	;# 
  1075  0F11                     	;# 
  1076  0F12                     	;# 
  1077  0F13                     	;# 
  1078  0F14                     	;# 
  1079  0F15                     	;# 
  1080  0F16                     	;# 
  1081  0F17                     	;# 
  1082  0F18                     	;# 
  1083  0F19                     	;# 
  1084  0F1A                     	;# 
  1085  0F1B                     	;# 
  1086  0F1C                     	;# 
  1087  0F1D                     	;# 
  1088  0F1E                     	;# 
  1089  0F1F                     	;# 
  1090  0F20                     	;# 
  1091  0F21                     	;# 
  1092  0F22                     	;# 
  1093  0F23                     	;# 
  1094  0FE4                     	;# 
  1095  0FE5                     	;# 
  1096  0FE6                     	;# 
  1097  0FE7                     	;# 
  1098  0FE8                     	;# 
  1099  0FE9                     	;# 
  1100  0FEA                     	;# 
  1101  0FEB                     	;# 
  1102  0FED                     	;# 
  1103  0FEE                     	;# 
  1104  0FEF                     	;# 
  1105  0000                     	;# 
  1106  0001                     	;# 
  1107  0002                     	;# 
  1108  0003                     	;# 
  1109  0004                     	;# 
  1110  0005                     	;# 
  1111  0006                     	;# 
  1112  0007                     	;# 
  1113  0008                     	;# 
  1114  0009                     	;# 
  1115  000A                     	;# 
  1116  000B                     	;# 
  1117  000C                     	;# 
  1118  000E                     	;# 
  1119  0010                     	;# 
  1120  0011                     	;# 
  1121  0012                     	;# 
  1122  0013                     	;# 
  1123  0014                     	;# 
  1124  0015                     	;# 
  1125  0015                     	;# 
  1126  0016                     	;# 
  1127  0016                     	;# 
  1128  0017                     	;# 
  1129  0018                     	;# 
  1130  0019                     	;# 
  1131  0019                     	;# 
  1132  001A                     	;# 
  1133  001B                     	;# 
  1134  001C                     	;# 
  1135  001D                     	;# 
  1136  001E                     	;# 
  1137  001F                     	;# 
  1138  008C                     	;# 
  1139  008E                     	;# 
  1140  0090                     	;# 
  1141  0091                     	;# 
  1142  0092                     	;# 
  1143  0093                     	;# 
  1144  0094                     	;# 
  1145  0097                     	;# 
  1146  009B                     	;# 
  1147  009B                     	;# 
  1148  009C                     	;# 
  1149  009D                     	;# 
  1150  009E                     	;# 
  1151  009F                     	;# 
  1152  010C                     	;# 
  1153  010E                     	;# 
  1154  0111                     	;# 
  1155  0112                     	;# 
  1156  0113                     	;# 
  1157  0114                     	;# 
  1158  0115                     	;# 
  1159  0116                     	;# 
  1160  0117                     	;# 
  1161  0118                     	;# 
  1162  0119                     	;# 
  1163  018C                     	;# 
  1164  018E                     	;# 
  1165  0197                     	;# 
  1166  0199                     	;# 
  1167  0199                     	;# 
  1168  0199                     	;# 
  1169  019A                     	;# 
  1170  019A                     	;# 
  1171  019A                     	;# 
  1172  019B                     	;# 
  1173  019B                     	;# 
  1174  019B                     	;# 
  1175  019B                     	;# 
  1176  019B                     	;# 
  1177  019C                     	;# 
  1178  019C                     	;# 
  1179  019C                     	;# 
  1180  019D                     	;# 
  1181  019D                     	;# 
  1182  019D                     	;# 
  1183  019E                     	;# 
  1184  019E                     	;# 
  1185  019E                     	;# 
  1186  019F                     	;# 
  1187  019F                     	;# 
  1188  019F                     	;# 
  1189  019F                     	;# 
  1190  019F                     	;# 
  1191  020C                     	;# 
  1192  020E                     	;# 
  1193  0211                     	;# 
  1194  0211                     	;# 
  1195  0212                     	;# 
  1196  0212                     	;# 
  1197  0213                     	;# 
  1198  0213                     	;# 
  1199  0214                     	;# 
  1200  0214                     	;# 
  1201  0215                     	;# 
  1202  0215                     	;# 
  1203  0215                     	;# 
  1204  0215                     	;# 
  1205  0216                     	;# 
  1206  0216                     	;# 
  1207  0217                     	;# 
  1208  0217                     	;# 
  1209  028C                     	;# 
  1210  028E                     	;# 
  1211  0291                     	;# 
  1212  0291                     	;# 
  1213  0292                     	;# 
  1214  0293                     	;# 
  1215  0294                     	;# 
  1216  0295                     	;# 
  1217  0295                     	;# 
  1218  0296                     	;# 
  1219  0297                     	;# 
  1220  0298                     	;# 
  1221  030C                     	;# 
  1222  030E                     	;# 
  1223  038C                     	;# 
  1224  038E                     	;# 
  1225  0391                     	;# 
  1226  0392                     	;# 
  1227  0393                     	;# 
  1228  0397                     	;# 
  1229  0398                     	;# 
  1230  0399                     	;# 
  1231  039A                     	;# 
  1232  039C                     	;# 
  1233  039D                     	;# 
  1234  039E                     	;# 
  1235  039F                     	;# 
  1236  0498                     	;# 
  1237  0498                     	;# 
  1238  0499                     	;# 
  1239  049A                     	;# 
  1240  049B                     	;# 
  1241  049B                     	;# 
  1242  049C                     	;# 
  1243  049D                     	;# 
  1244  049E                     	;# 
  1245  049F                     	;# 
  1246  0617                     	;# 
  1247  0618                     	;# 
  1248  0619                     	;# 
  1249  0619                     	;# 
  1250  061A                     	;# 
  1251  061B                     	;# 
  1252  061C                     	;# 
  1253  061C                     	;# 
  1254  0691                     	;# 
  1255  0692                     	;# 
  1256  0693                     	;# 
  1257  0694                     	;# 
  1258  0695                     	;# 
  1259  0696                     	;# 
  1260  0697                     	;# 
  1261  0698                     	;# 
  1262  0699                     	;# 
  1263  0891                     	;# 
  1264  0891                     	;# 
  1265  0891                     	;# 
  1266  0891                     	;# 
  1267  0891                     	;# 
  1268  0891                     	;# 
  1269  0892                     	;# 
  1270  0892                     	;# 
  1271  0892                     	;# 
  1272  0893                     	;# 
  1273  0893                     	;# 
  1274  0893                     	;# 
  1275  0893                     	;# 
  1276  0893                     	;# 
  1277  0893                     	;# 
  1278  0894                     	;# 
  1279  0894                     	;# 
  1280  0894                     	;# 
  1281  0895                     	;# 
  1282  0895                     	;# 
  1283  0895                     	;# 
  1284  0896                     	;# 
  1285  0896                     	;# 
  1286  0896                     	;# 
  1287  089B                     	;# 
  1288  0911                     	;# 
  1289  0912                     	;# 
  1290  0913                     	;# 
  1291  0914                     	;# 
  1292  0915                     	;# 
  1293  0916                     	;# 
  1294  0918                     	;# 
  1295  0919                     	;# 
  1296  091A                     	;# 
  1297  091B                     	;# 
  1298  091C                     	;# 
  1299  091D                     	;# 
  1300  091E                     	;# 
  1301  091F                     	;# 
  1302  0E0F                     	;# 
  1303  0E10                     	;# 
  1304  0E11                     	;# 
  1305  0E12                     	;# 
  1306  0E13                     	;# 
  1307  0E14                     	;# 
  1308  0E15                     	;# 
  1309  0E18                     	;# 
  1310  0E1A                     	;# 
  1311  0E1B                     	;# 
  1312  0E1C                     	;# 
  1313  0E20                     	;# 
  1314  0E21                     	;# 
  1315  0E22                     	;# 
  1316  0E24                     	;# 
  1317  0E25                     	;# 
  1318  0E28                     	;# 
  1319  0E29                     	;# 
  1320  0E2A                     	;# 
  1321  0E2B                     	;# 
  1322  0E90                     	;# 
  1323  0E91                     	;# 
  1324  0E92                     	;# 
  1325  0E94                     	;# 
  1326  0E95                     	;# 
  1327  0EA0                     	;# 
  1328  0EA1                     	;# 
  1329  0EA2                     	;# 
  1330  0EA3                     	;# 
  1331  0EA4                     	;# 
  1332  0EA5                     	;# 
  1333  0F0F                     	;# 
  1334  0F10                     	;# 
  1335  0F11                     	;# 
  1336  0F12                     	;# 
  1337  0F13                     	;# 
  1338  0F14                     	;# 
  1339  0F15                     	;# 
  1340  0F16                     	;# 
  1341  0F17                     	;# 
  1342  0F18                     	;# 
  1343  0F19                     	;# 
  1344  0F1A                     	;# 
  1345  0F1B                     	;# 
  1346  0F1C                     	;# 
  1347  0F1D                     	;# 
  1348  0F1E                     	;# 
  1349  0F1F                     	;# 
  1350  0F20                     	;# 
  1351  0F21                     	;# 
  1352  0F22                     	;# 
  1353  0F23                     	;# 
  1354  0FE4                     	;# 
  1355  0FE5                     	;# 
  1356  0FE6                     	;# 
  1357  0FE7                     	;# 
  1358  0FE8                     	;# 
  1359  0FE9                     	;# 
  1360  0FEA                     	;# 
  1361  0FEB                     	;# 
  1362  0FED                     	;# 
  1363  0FEE                     	;# 
  1364  0FEF                     	;# 
  1365                           
  1366                           	psect	nvBANK0
  1367  0061                     __pnvBANK0:
  1368  0061                     _device_ID:
  1369  0061                     	ds	1
  1370  0097                     _WDTCON	set	151
  1371  009D                     _ADCON0bits	set	157
  1372  009D                     _ADCON0	set	157
  1373  009C                     _ADRESH	set	156
  1374  009B                     _ADRESL	set	155
  1375  009F                     _ADACT	set	159
  1376  009E                     _ADCON1	set	158
  1377  008E                     _TRISC	set	142
  1378  008C                     _TRISA	set	140
  1379  010E                     _LATC	set	270
  1380  010C                     _LATA	set	268
  1381  018C                     _ANSELA	set	396
  1382  018E                     _ANSELC	set	398
  1383  020E                     _WPUC	set	526
  1384  020C                     _WPUA	set	524
  1385  028E                     _ODCONC	set	654
  1386  028C                     _ODCONA	set	652
  1387  030E                     _SLRCONC	set	782
  1388  030C                     _SLRCONA	set	780
  1389  038E                     _INLVLC	set	910
  1390  038C                     _INLVLA	set	908
  1391  0916                     _PMD5	set	2326
  1392  0915                     _PMD4	set	2325
  1393  0914                     _PMD3	set	2324
  1394  0913                     _PMD2	set	2323
  1395  0912                     _PMD1	set	2322
  1396  0911                     _PMD0	set	2321
  1397  091E                     _OSCTUNE	set	2334
  1398  091F                     _OSCFRQ	set	2335
  1399  091D                     _OSCEN	set	2333
  1400  091B                     _OSCCON3	set	2331
  1401  0919                     _OSCCON1	set	2329
  1402                           
  1403                           	psect	cinit
  1404  07FB                     start_initialization:	
  1405                           ; #config settings
  1406                           
  1407  07FB                     __initialization:
  1408                           
  1409                           ; Clear objects allocated to BANK0
  1410  07FB  0020               	movlb	0	; select bank0
  1411  07FC  01DF               	clrf	__pbssBANK0& (0+127)
  1412  07FD  01E0               	clrf	(__pbssBANK0+1)& (0+127)
  1413  07FE                     end_of_initialization:	
  1414                           ;End of C runtime variable initialization code
  1415                           
  1416  07FE                     __end_of__initialization:
  1417  07FE  0020               	movlb	0
  1418  07FF  2921               	ljmp	_main	;jump to C main() function
  1419                           
  1420                           	psect	bssBANK0
  1421  005F                     __pbssBANK0:
  1422  005F                     _ADC_InterruptHandler:
  1423  005F                     	ds	2
  1424                           
  1425                           	psect	cstackCOMMON
  1426  0070                     __pcstackCOMMON:
  1427  0070                     ?_PMD_Initialize:
  1428  0070                     ??_PMD_Initialize:	
  1429                           ; 1 bytes @ 0x0
  1430                           
  1431  0070                     ?_OSCILLATOR_Initialize:	
  1432                           ; 1 bytes @ 0x0
  1433                           
  1434  0070                     ??_OSCILLATOR_Initialize:	
  1435                           ; 1 bytes @ 0x0
  1436                           
  1437  0070                     ?_WDT_Initialize:	
  1438                           ; 1 bytes @ 0x0
  1439                           
  1440  0070                     ??_WDT_Initialize:	
  1441                           ; 1 bytes @ 0x0
  1442                           
  1443  0070                     ?_Configure_Device_Id:	
  1444                           ; 1 bytes @ 0x0
  1445                           
  1446  0070                     ?_readTemperatureFromSensor:	
  1447                           ; 1 bytes @ 0x0
  1448                           
  1449  0070                     ?_PIN_MANAGER_Initialize:	
  1450                           ; 1 bytes @ 0x0
  1451                           
  1452  0070                     ??_PIN_MANAGER_Initialize:	
  1453                           ; 1 bytes @ 0x0
  1454                           
  1455  0070                     ?_ADC_Initialize:	
  1456                           ; 1 bytes @ 0x0
  1457                           
  1458  0070                     ??_ADC_Initialize:	
  1459                           ; 1 bytes @ 0x0
  1460                           
  1461  0070                     ?_SYSTEM_Initialize:	
  1462                           ; 1 bytes @ 0x0
  1463                           
  1464  0070                     ??_SYSTEM_Initialize:	
  1465                           ; 1 bytes @ 0x0
  1466                           
  1467  0070                     ?__Umul8_16:	
  1468                           ; 1 bytes @ 0x0
  1469                           
  1470  0070                     ?_ADC_GetConversion:	
  1471                           ; 2 bytes @ 0x0
  1472                           
  1473  0070                     ?_main:	
  1474                           ; 2 bytes @ 0x0
  1475                           
  1476  0070                     ?___xxtofl:	
  1477                           ; 2 bytes @ 0x0
  1478                           
  1479  0070                     __Umul8_16@multiplicand:	
  1480                           ; 4 bytes @ 0x0
  1481                           
  1482  0070                     ___xxtofl@val:	
  1483                           ; 1 bytes @ 0x0
  1484                           
  1485                           
  1486                           ; 4 bytes @ 0x0
  1487  0070                     	ds	2
  1488  0072                     ??__Umul8_16:
  1489  0072                     ??_ADC_GetConversion:	
  1490                           ; 1 bytes @ 0x2
  1491                           
  1492                           
  1493                           ; 1 bytes @ 0x2
  1494  0072                     	ds	1
  1495  0073                     ADC_GetConversion@channel:
  1496                           
  1497                           ; 1 bytes @ 0x3
  1498  0073                     	ds	1
  1499  0074                     ??___xxtofl:
  1500  0074                     ?___lwdiv:	
  1501                           ; 1 bytes @ 0x4
  1502                           
  1503  0074                     ___lwdiv@divisor:	
  1504                           ; 2 bytes @ 0x4
  1505                           
  1506  0074                     __Umul8_16@product:	
  1507                           ; 2 bytes @ 0x4
  1508                           
  1509                           
  1510                           ; 2 bytes @ 0x4
  1511  0074                     	ds	2
  1512  0076                     ___lwdiv@dividend:
  1513  0076                     __Umul8_16@word_mpld:	
  1514                           ; 2 bytes @ 0x6
  1515                           
  1516                           
  1517                           ; 2 bytes @ 0x6
  1518  0076                     	ds	2
  1519  0078                     ??___lwdiv:
  1520  0078                     __Umul8_16@multiplier:	
  1521                           ; 1 bytes @ 0x8
  1522                           
  1523  0078                     ___xxtofl@sign:	
  1524                           ; 1 bytes @ 0x8
  1525                           
  1526                           
  1527                           ; 1 bytes @ 0x8
  1528  0078                     	ds	1
  1529  0079                     ___xxtofl@exp:
  1530  0079                     ___lwdiv@quotient:	
  1531                           ; 1 bytes @ 0x9
  1532                           
  1533                           
  1534                           ; 2 bytes @ 0x9
  1535  0079                     	ds	1
  1536  007A                     ___xxtofl@arg:
  1537                           
  1538                           ; 4 bytes @ 0xA
  1539  007A                     	ds	1
  1540  007B                     ___lwdiv@counter:
  1541                           
  1542                           ; 1 bytes @ 0xB
  1543  007B                     	ds	3
  1544  007E                     ??_readTemperatureFromSensor:
  1545  007E                     ??_calculateTemperatureFromVolatage:	
  1546                           ; 1 bytes @ 0xE
  1547                           
  1548                           
  1549                           	psect	cstackBANK0
  1550  0020                     __pcstackBANK0:	
  1551                           ; 1 bytes @ 0xE
  1552                           
  1553  0020                     ??_Configure_Device_Id:
  1554  0020                     ?___flmul:	
  1555                           ; 1 bytes @ 0x0
  1556                           
  1557  0020                     ___flmul@b:	
  1558                           ; 4 bytes @ 0x0
  1559                           
  1560                           
  1561                           ; 4 bytes @ 0x0
  1562  0020                     	ds	3
  1563  0023                     Configure_Device_Id@C0:
  1564                           
  1565                           ; 1 bytes @ 0x3
  1566  0023                     	ds	1
  1567  0024                     Configure_Device_Id@C1:
  1568  0024                     ___flmul@a:	
  1569                           ; 1 bytes @ 0x4
  1570                           
  1571                           
  1572                           ; 4 bytes @ 0x4
  1573  0024                     	ds	1
  1574  0025                     Configure_Device_Id@C2:
  1575                           
  1576                           ; 1 bytes @ 0x5
  1577  0025                     	ds	3
  1578  0028                     ??___flmul:
  1579                           
  1580                           ; 1 bytes @ 0x8
  1581  0028                     	ds	5
  1582  002D                     ___flmul@sign:
  1583                           
  1584                           ; 1 bytes @ 0xD
  1585  002D                     	ds	1
  1586  002E                     ___flmul@grs:
  1587                           
  1588                           ; 4 bytes @ 0xE
  1589  002E                     	ds	4
  1590  0032                     ___flmul@aexp:
  1591                           
  1592                           ; 1 bytes @ 0x12
  1593  0032                     	ds	1
  1594  0033                     ___flmul@bexp:
  1595                           
  1596                           ; 1 bytes @ 0x13
  1597  0033                     	ds	1
  1598  0034                     ___flmul@prod:
  1599                           
  1600                           ; 4 bytes @ 0x14
  1601  0034                     	ds	4
  1602  0038                     ___flmul@temp:
  1603                           
  1604                           ; 2 bytes @ 0x18
  1605  0038                     	ds	2
  1606  003A                     ?___fladd:
  1607  003A                     ___fladd@b:	
  1608                           ; 4 bytes @ 0x1A
  1609                           
  1610                           
  1611                           ; 4 bytes @ 0x1A
  1612  003A                     	ds	4
  1613  003E                     ___fladd@a:
  1614                           
  1615                           ; 4 bytes @ 0x1E
  1616  003E                     	ds	4
  1617  0042                     ??___fladd:
  1618                           
  1619                           ; 1 bytes @ 0x22
  1620  0042                     	ds	8
  1621  004A                     ___fladd@signs:
  1622                           
  1623                           ; 1 bytes @ 0x2A
  1624  004A                     	ds	1
  1625  004B                     ___fladd@aexp:
  1626                           
  1627                           ; 1 bytes @ 0x2B
  1628  004B                     	ds	1
  1629  004C                     ___fladd@bexp:
  1630                           
  1631                           ; 1 bytes @ 0x2C
  1632  004C                     	ds	1
  1633  004D                     ___fladd@grs:
  1634                           
  1635                           ; 1 bytes @ 0x2D
  1636  004D                     	ds	1
  1637  004E                     ?___fltol:
  1638  004E                     ___fltol@f1:	
  1639                           ; 4 bytes @ 0x2E
  1640                           
  1641                           
  1642                           ; 4 bytes @ 0x2E
  1643  004E                     	ds	4
  1644  0052                     ??___fltol:
  1645                           
  1646                           ; 1 bytes @ 0x32
  1647  0052                     	ds	5
  1648  0057                     ___fltol@sign1:
  1649                           
  1650                           ; 1 bytes @ 0x37
  1651  0057                     	ds	1
  1652  0058                     ___fltol@exp1:
  1653                           
  1654                           ; 1 bytes @ 0x38
  1655  0058                     	ds	1
  1656  0059                     ?_calculateTemperatureFromVolatage:
  1657  0059                     calculateTemperatureFromVolatage@vol:	
  1658                           ; 1 bytes @ 0x39
  1659                           
  1660                           
  1661                           ; 2 bytes @ 0x39
  1662  0059                     	ds	2
  1663  005B                     readTemperatureFromSensor@voltage:
  1664                           
  1665                           ; 2 bytes @ 0x3B
  1666  005B                     	ds	2
  1667  005D                     ??_main:
  1668                           
  1669                           ; 1 bytes @ 0x3D
  1670  005D                     	ds	2
  1671                           
  1672                           	psect	maintext
  1673  0121                     __pmaintext:	
  1674 ;;
  1675 ;;Main: autosize = 0, tempsize = 2, incstack = 0, save=0
  1676 ;;
  1677 ;; *************** function _main *****************
  1678 ;; Defined at:
  1679 ;;		line 59 in file "main.c"
  1680 ;; Parameters:    Size  Location     Type
  1681 ;;		None
  1682 ;; Auto vars:     Size  Location     Type
  1683 ;;  temp            1    0        unsigned char 
  1684 ;; Return value:  Size  Location     Type
  1685 ;;                  2  142[None  ] int 
  1686 ;; Registers used:
  1687 ;;		wreg, status,2, status,0, pclath, cstack
  1688 ;; Tracked objects:
  1689 ;;		On entry : B1F/0
  1690 ;;		On exit  : 0/0
  1691 ;;		Unchanged: 0/0
  1692 ;; Data sizes:     COMMON   BANK0   BANK1   BANK2
  1693 ;;      Params:         0       0       0       0
  1694 ;;      Locals:         0       0       0       0
  1695 ;;      Temps:          0       2       0       0
  1696 ;;      Totals:         0       2       0       0
  1697 ;;Total ram usage:        2 bytes
  1698 ;; Hardware stack levels required when called: 4
  1699 ;; This function calls:
  1700 ;;		_ADC_Initialize
  1701 ;;		_Configure_Device_Id
  1702 ;;		_SYSTEM_Initialize
  1703 ;;		_readTemperatureFromSensor
  1704 ;; This function is called by:
  1705 ;;		Startup code after reset
  1706 ;; This function uses a non-reentrant model
  1707 ;;
  1708                           
  1709  0121                     _main:	
  1710                           ;psect for function _main
  1711                           
  1712  0121                     l1809:	
  1713                           ;incstack = 0
  1714                           ; Regs used in _main: [wreg+status,2+status,0+pclath+cstack]
  1715                           
  1716                           
  1717                           ;main.c: 62:     SYSTEM_Initialize();
  1718  0121  3180  20E8  3181   	fcall	_SYSTEM_Initialize
  1719                           
  1720                           ;main.c: 64:     ADC_Initialize();
  1721  0124  3180  20D6  3181   	fcall	_ADC_Initialize
  1722                           
  1723                           ;main.c: 66:     Configure_Device_Id();
  1724  0127  3181  21FB  3181   	fcall	_Configure_Device_Id
  1725  012A                     l1811:
  1726                           
  1727                           ;main.c: 83:         _delay((unsigned long)((3000)*(1000000/4000.0)));
  1728  012A  3004               	movlw	4
  1729  012B  0020               	movlb	0	; select bank0
  1730  012C  00DE               	movwf	??_main+1
  1731  012D  30CF               	movlw	207
  1732  012E  00DD               	movwf	??_main
  1733  012F  3001               	movlw	1
  1734  0130                     u2137:
  1735  0130  0B89               	decfsz	9,f
  1736  0131  2930               	goto	u2137
  1737  0132  0BDD               	decfsz	??_main,f
  1738  0133  2930               	goto	u2137
  1739  0134  0BDE               	decfsz	??_main+1,f
  1740  0135  2930               	goto	u2137
  1741  0136  3200               	nop2
  1742  0137                     l1813:
  1743  0137  3180  20F8  3181   	fcall	_readTemperatureFromSensor
  1744  013A  292A               	goto	l1811
  1745  013B  2801               	ljmp	start
  1746  013C                     __end_of_main:
  1747                           
  1748                           	psect	text1
  1749  00F8                     __ptext1:	
  1750 ;; *************** function _readTemperatureFromSensor *****************
  1751 ;; Defined at:
  1752 ;;		line 101 in file "main.c"
  1753 ;; Parameters:    Size  Location     Type
  1754 ;;		None
  1755 ;; Auto vars:     Size  Location     Type
  1756 ;;  voltage         2   59[BANK0 ] unsigned short 
  1757 ;; Return value:  Size  Location     Type
  1758 ;;                  1    wreg      unsigned char 
  1759 ;; Registers used:
  1760 ;;		wreg, status,2, status,0, pclath, cstack
  1761 ;; Tracked objects:
  1762 ;;		On entry : 0/0
  1763 ;;		On exit  : 0/0
  1764 ;;		Unchanged: 0/0
  1765 ;; Data sizes:     COMMON   BANK0   BANK1   BANK2
  1766 ;;      Params:         0       0       0       0
  1767 ;;      Locals:         0       2       0       0
  1768 ;;      Temps:          0       0       0       0
  1769 ;;      Totals:         0       2       0       0
  1770 ;;Total ram usage:        2 bytes
  1771 ;; Hardware stack levels used: 1
  1772 ;; Hardware stack levels required when called: 3
  1773 ;; This function calls:
  1774 ;;		_ADC_GetConversion
  1775 ;;		_calculateTemperatureFromVolatage
  1776 ;; This function is called by:
  1777 ;;		_main
  1778 ;; This function uses a non-reentrant model
  1779 ;;
  1780                           
  1781  00F8                     _readTemperatureFromSensor:	
  1782                           ;psect for function _readTemperatureFromSensor
  1783                           
  1784  00F8                     l1805:	
  1785                           ;incstack = 0
  1786                           ; Regs used in _readTemperatureFromSensor: [wreg+status,2+status,0+pclath+cstack]
  1787                           
  1788                           
  1789                           ;main.c: 102:     uint16_t voltage = ADC_GetConversion(Temp_Sensor);
  1790  00F8  3013               	movlw	19
  1791  00F9  3181  2109  3180   	fcall	_ADC_GetConversion
  1792  00FC  0871               	movf	?_ADC_GetConversion+1,w
  1793  00FD  0020               	movlb	0	; select bank0
  1794  00FE  00DC               	movwf	readTemperatureFromSensor@voltage+1
  1795  00FF  0870               	movf	?_ADC_GetConversion,w
  1796  0100  00DB               	movwf	readTemperatureFromSensor@voltage
  1797                           
  1798                           ;main.c: 104:     return calculateTemperatureFromVolatage(voltage);
  1799  0101  085C               	movf	readTemperatureFromSensor@voltage+1,w
  1800  0102  00DA               	movwf	calculateTemperatureFromVolatage@vol+1
  1801  0103  085B               	movf	readTemperatureFromSensor@voltage,w
  1802  0104  00D9               	movwf	calculateTemperatureFromVolatage@vol
  1803  0105  3181  21B9  3180   	fcall	_calculateTemperatureFromVolatage
  1804  0108                     l152:
  1805  0108  0008               	return
  1806  0109                     __end_of_readTemperatureFromSensor:
  1807                           
  1808                           	psect	text2
  1809  01B9                     __ptext2:	
  1810 ;; *************** function _calculateTemperatureFromVolatage *****************
  1811 ;; Defined at:
  1812 ;;		line 107 in file "main.c"
  1813 ;; Parameters:    Size  Location     Type
  1814 ;;  vol             2   57[BANK0 ] unsigned short 
  1815 ;; Auto vars:     Size  Location     Type
  1816 ;;		None
  1817 ;; Return value:  Size  Location     Type
  1818 ;;                  1    wreg      unsigned char 
  1819 ;; Registers used:
  1820 ;;		wreg, status,2, status,0, pclath, cstack
  1821 ;; Tracked objects:
  1822 ;;		On entry : 0/0
  1823 ;;		On exit  : 0/0
  1824 ;;		Unchanged: 0/0
  1825 ;; Data sizes:     COMMON   BANK0   BANK1   BANK2
  1826 ;;      Params:         0       2       0       0
  1827 ;;      Locals:         0       0       0       0
  1828 ;;      Temps:          0       0       0       0
  1829 ;;      Totals:         0       2       0       0
  1830 ;;Total ram usage:        2 bytes
  1831 ;; Hardware stack levels used: 1
  1832 ;; Hardware stack levels required when called: 2
  1833 ;; This function calls:
  1834 ;;		___fladd
  1835 ;;		___flmul
  1836 ;;		___fltol
  1837 ;;		___xxtofl
  1838 ;; This function is called by:
  1839 ;;		_readTemperatureFromSensor
  1840 ;; This function uses a non-reentrant model
  1841 ;;
  1842                           
  1843  01B9                     _calculateTemperatureFromVolatage:	
  1844                           ;psect for function _calculateTemperatureFromVolatage
  1845                           
  1846  01B9                     l1771:	
  1847                           ;incstack = 0
  1848                           ; Regs used in _calculateTemperatureFromVolatage: [wreg+status,2+status,0+pclath+cstack]
  1849                           
  1850                           
  1851                           ;main.c: 109:     return -0.0991*vol + 76.782;
  1852  01B9  0020               	movlb	0	; select bank0
  1853  01BA  0859               	movf	calculateTemperatureFromVolatage@vol,w
  1854  01BB  00F0               	movwf	___xxtofl@val
  1855  01BC  085A               	movf	calculateTemperatureFromVolatage@vol+1,w
  1856  01BD  00F1               	movwf	___xxtofl@val+1
  1857  01BE  01F2               	clrf	___xxtofl@val+2
  1858  01BF  01F3               	clrf	___xxtofl@val+3
  1859  01C0  3000               	movlw	0
  1860  01C1  3182  22C0  3181   	fcall	___xxtofl
  1861  01C4  0873               	movf	?___xxtofl+3,w
  1862  01C5  0020               	movlb	0	; select bank0
  1863  01C6  00A7               	movwf	___flmul@a+3
  1864  01C7  0872               	movf	?___xxtofl+2,w
  1865  01C8  00A6               	movwf	___flmul@a+2
  1866  01C9  0871               	movf	?___xxtofl+1,w
  1867  01CA  00A5               	movwf	___flmul@a+1
  1868  01CB  0870               	movf	?___xxtofl,w
  1869  01CC  00A4               	movwf	___flmul@a
  1870  01CD  30BD               	movlw	189
  1871  01CE  00A3               	movwf	___flmul@b+3
  1872  01CF  30CA               	movlw	202
  1873  01D0  00A2               	movwf	___flmul@b+2
  1874  01D1  30F4               	movlw	244
  1875  01D2  00A1               	movwf	___flmul@b+1
  1876  01D3  30F1               	movlw	241
  1877  01D4  00A0               	movwf	___flmul@b
  1878  01D5  3185  25A4  3181   	fcall	___flmul
  1879  01D8  0020               	movlb	0	; select bank0
  1880  01D9  0823               	movf	?___flmul+3,w
  1881  01DA  00C1               	movwf	___fladd@a+3
  1882  01DB  0822               	movf	?___flmul+2,w
  1883  01DC  00C0               	movwf	___fladd@a+2
  1884  01DD  0821               	movf	?___flmul+1,w
  1885  01DE  00BF               	movwf	___fladd@a+1
  1886  01DF  0820               	movf	?___flmul,w
  1887  01E0  00BE               	movwf	___fladd@a
  1888  01E1  3042               	movlw	66
  1889  01E2  00BD               	movwf	___fladd@b+3
  1890  01E3  3099               	movlw	153
  1891  01E4  00BC               	movwf	___fladd@b+2
  1892  01E5  3090               	movlw	144
  1893  01E6  00BB               	movwf	___fladd@b+1
  1894  01E7  3062               	movlw	98
  1895  01E8  00BA               	movwf	___fladd@b
  1896  01E9  3183  236C  3181   	fcall	___fladd
  1897  01EC  0020               	movlb	0	; select bank0
  1898  01ED  083D               	movf	?___fladd+3,w
  1899  01EE  00D1               	movwf	___fltol@f1+3
  1900  01EF  083C               	movf	?___fladd+2,w
  1901  01F0  00D0               	movwf	___fltol@f1+2
  1902  01F1  083B               	movf	?___fladd+1,w
  1903  01F2  00CF               	movwf	___fltol@f1+1
  1904  01F3  083A               	movf	?___fladd,w
  1905  01F4  00CE               	movwf	___fltol@f1
  1906  01F5  3182  224B  3181   	fcall	___fltol
  1907  01F8  0020               	movlb	0	; select bank0
  1908  01F9  084E               	movf	?___fltol,w
  1909  01FA                     l155:
  1910  01FA  0008               	return
  1911  01FB                     __end_of_calculateTemperatureFromVolatage:
  1912                           
  1913                           	psect	text3
  1914  02C0                     __ptext3:	
  1915 ;; *************** function ___xxtofl *****************
  1916 ;; Defined at:
  1917 ;;		line 10 in file "D:\Softwares\Microchip\xc8\v2.36\pic\sources\c99\common\xxtofl.c"
  1918 ;; Parameters:    Size  Location     Type
  1919 ;;  sign            1    wreg     unsigned char 
  1920 ;;  val             4    0[COMMON] long 
  1921 ;; Auto vars:     Size  Location     Type
  1922 ;;  sign            1    8[COMMON] unsigned char 
  1923 ;;  arg             4   10[COMMON] unsigned long 
  1924 ;;  exp             1    9[COMMON] unsigned char 
  1925 ;; Return value:  Size  Location     Type
  1926 ;;                  4    0[COMMON] unsigned char 
  1927 ;; Registers used:
  1928 ;;		wreg, status,2, status,0
  1929 ;; Tracked objects:
  1930 ;;		On entry : 0/0
  1931 ;;		On exit  : 0/0
  1932 ;;		Unchanged: 0/0
  1933 ;; Data sizes:     COMMON   BANK0   BANK1   BANK2
  1934 ;;      Params:         4       0       0       0
  1935 ;;      Locals:         6       0       0       0
  1936 ;;      Temps:          4       0       0       0
  1937 ;;      Totals:        14       0       0       0
  1938 ;;Total ram usage:       14 bytes
  1939 ;; Hardware stack levels used: 1
  1940 ;; This function calls:
  1941 ;;		Nothing
  1942 ;; This function is called by:
  1943 ;;		_calculateTemperatureFromVolatage
  1944 ;; This function uses a non-reentrant model
  1945 ;;
  1946                           
  1947  02C0                     ___xxtofl:	
  1948                           ;psect for function ___xxtofl
  1949                           
  1950                           
  1951                           ;incstack = 0
  1952                           ; Regs used in ___xxtofl: [wreg+status,2+status,0]
  1953                           ;___xxtofl@sign stored from wreg
  1954  02C0  00F8               	movwf	___xxtofl@sign
  1955  02C1                     l1715:
  1956  02C1  0878               	movf	___xxtofl@sign,w
  1957  02C2  1903               	btfsc	3,2
  1958  02C3  2AC5               	goto	u1891
  1959  02C4  2AC6               	goto	u1890
  1960  02C5                     u1891:
  1961  02C5  2ADA               	goto	l1721
  1962  02C6                     u1890:
  1963  02C6                     l1717:
  1964  02C6  1FF3               	btfss	___xxtofl@val+3,7
  1965  02C7  2AC9               	goto	u1901
  1966  02C8  2ACA               	goto	u1900
  1967  02C9                     u1901:
  1968  02C9  2ADA               	goto	l1721
  1969  02CA                     u1900:
  1970  02CA                     l1719:
  1971  02CA  0970               	comf	___xxtofl@val,w
  1972  02CB  00FA               	movwf	___xxtofl@arg
  1973  02CC  0971               	comf	___xxtofl@val+1,w
  1974  02CD  00FB               	movwf	___xxtofl@arg+1
  1975  02CE  0972               	comf	___xxtofl@val+2,w
  1976  02CF  00FC               	movwf	___xxtofl@arg+2
  1977  02D0  0973               	comf	___xxtofl@val+3,w
  1978  02D1  00FD               	movwf	___xxtofl@arg+3
  1979  02D2  0AFA               	incf	___xxtofl@arg,f
  1980  02D3  1903               	skipnz
  1981  02D4  0AFB               	incf	___xxtofl@arg+1,f
  1982  02D5  1903               	skipnz
  1983  02D6  0AFC               	incf	___xxtofl@arg+2,f
  1984  02D7  1903               	skipnz
  1985  02D8  0AFD               	incf	___xxtofl@arg+3,f
  1986  02D9  2AE2               	goto	l754
  1987  02DA                     l1721:
  1988  02DA  0873               	movf	___xxtofl@val+3,w
  1989  02DB  00FD               	movwf	___xxtofl@arg+3
  1990  02DC  0872               	movf	___xxtofl@val+2,w
  1991  02DD  00FC               	movwf	___xxtofl@arg+2
  1992  02DE  0871               	movf	___xxtofl@val+1,w
  1993  02DF  00FB               	movwf	___xxtofl@arg+1
  1994  02E0  0870               	movf	___xxtofl@val,w
  1995  02E1  00FA               	movwf	___xxtofl@arg
  1996  02E2                     l754:
  1997  02E2  0873               	movf	___xxtofl@val+3,w
  1998  02E3  0472               	iorwf	___xxtofl@val+2,w
  1999  02E4  0471               	iorwf	___xxtofl@val+1,w
  2000  02E5  0470               	iorwf	___xxtofl@val,w
  2001  02E6  1D03               	skipz
  2002  02E7  2AE9               	goto	u1911
  2003  02E8  2AEA               	goto	u1910
  2004  02E9                     u1911:
  2005  02E9  2AF3               	goto	l1727
  2006  02EA                     u1910:
  2007  02EA                     l1723:
  2008  02EA  3000               	movlw	0
  2009  02EB  00F3               	movwf	?___xxtofl+3
  2010  02EC  3000               	movlw	0
  2011  02ED  00F2               	movwf	?___xxtofl+2
  2012  02EE  3000               	movlw	0
  2013  02EF  00F1               	movwf	?___xxtofl+1
  2014  02F0  3000               	movlw	0
  2015  02F1  00F0               	movwf	?___xxtofl
  2016  02F2  2B6B               	goto	l756
  2017  02F3                     l1727:
  2018  02F3  3096               	movlw	150
  2019  02F4  00F4               	movwf	??___xxtofl
  2020  02F5  0874               	movf	??___xxtofl,w
  2021  02F6  00F9               	movwf	___xxtofl@exp
  2022  02F7  2B03               	goto	l1731
  2023  02F8                     l1729:
  2024  02F8  3001               	movlw	1
  2025  02F9  00F4               	movwf	??___xxtofl
  2026  02FA  0874               	movf	??___xxtofl,w
  2027  02FB  07F9               	addwf	___xxtofl@exp,f
  2028  02FC  3001               	movlw	1
  2029  02FD                     u1925:
  2030  02FD  36FD               	lsrf	___xxtofl@arg+3,f
  2031  02FE  0CFC               	rrf	___xxtofl@arg+2,f
  2032  02FF  0CFB               	rrf	___xxtofl@arg+1,f
  2033  0300  0CFA               	rrf	___xxtofl@arg,f
  2034  0301  0B89               	decfsz	9,f
  2035  0302  2AFD               	goto	u1925
  2036  0303                     l1731:
  2037  0303  30FE               	movlw	254
  2038  0304  057D               	andwf	___xxtofl@arg+3,w
  2039  0305  1D03               	btfss	3,2
  2040  0306  2B08               	goto	u1931
  2041  0307  2B09               	goto	u1930
  2042  0308                     u1931:
  2043  0308  2AF8               	goto	l1729
  2044  0309                     u1930:
  2045  0309  2B1D               	goto	l760
  2046  030A                     l1733:
  2047  030A  3001               	movlw	1
  2048  030B  00F4               	movwf	??___xxtofl
  2049  030C  0874               	movf	??___xxtofl,w
  2050  030D  07F9               	addwf	___xxtofl@exp,f
  2051  030E                     l1735:
  2052  030E  3001               	movlw	1
  2053  030F  07FA               	addwf	___xxtofl@arg,f
  2054  0310  3000               	movlw	0
  2055  0311  3DFB               	addwfc	___xxtofl@arg+1,f
  2056  0312  3000               	movlw	0
  2057  0313  3DFC               	addwfc	___xxtofl@arg+2,f
  2058  0314  3000               	movlw	0
  2059  0315  3DFD               	addwfc	___xxtofl@arg+3,f
  2060  0316                     l1737:
  2061  0316  3001               	movlw	1
  2062  0317                     u1945:
  2063  0317  36FD               	lsrf	___xxtofl@arg+3,f
  2064  0318  0CFC               	rrf	___xxtofl@arg+2,f
  2065  0319  0CFB               	rrf	___xxtofl@arg+1,f
  2066  031A  0CFA               	rrf	___xxtofl@arg,f
  2067  031B  0B89               	decfsz	9,f
  2068  031C  2B17               	goto	u1945
  2069  031D                     l760:
  2070  031D  30FF               	movlw	255
  2071  031E  057D               	andwf	___xxtofl@arg+3,w
  2072  031F  1D03               	btfss	3,2
  2073  0320  2B22               	goto	u1951
  2074  0321  2B23               	goto	u1950
  2075  0322                     u1951:
  2076  0322  2B0A               	goto	l1733
  2077  0323                     u1950:
  2078  0323  2B2D               	goto	l1741
  2079  0324                     l1739:
  2080  0324  3001               	movlw	1
  2081  0325  02F9               	subwf	___xxtofl@exp,f
  2082  0326  3001               	movlw	1
  2083  0327                     u1965:
  2084  0327  35FA               	lslf	___xxtofl@arg,f
  2085  0328  0DFB               	rlf	___xxtofl@arg+1,f
  2086  0329  0DFC               	rlf	___xxtofl@arg+2,f
  2087  032A  0DFD               	rlf	___xxtofl@arg+3,f
  2088  032B  0B89               	decfsz	9,f
  2089  032C  2B27               	goto	u1965
  2090  032D                     l1741:
  2091  032D  1BFC               	btfsc	___xxtofl@arg+2,7
  2092  032E  2B30               	goto	u1971
  2093  032F  2B31               	goto	u1970
  2094  0330                     u1971:
  2095  0330  2B37               	goto	l767
  2096  0331                     u1970:
  2097  0331                     l1743:
  2098  0331  3002               	movlw	2
  2099  0332  0279               	subwf	___xxtofl@exp,w
  2100  0333  1803               	skipnc
  2101  0334  2B36               	goto	u1981
  2102  0335  2B37               	goto	u1980
  2103  0336                     u1981:
  2104  0336  2B24               	goto	l1739
  2105  0337                     u1980:
  2106  0337                     l767:
  2107  0337  1879               	btfsc	___xxtofl@exp,0
  2108  0338  2B3A               	goto	u1991
  2109  0339  2B3B               	goto	u1990
  2110  033A                     u1991:
  2111  033A  2B43               	goto	l768
  2112  033B                     u1990:
  2113  033B                     l1745:
  2114  033B  30FF               	movlw	255
  2115  033C  05FA               	andwf	___xxtofl@arg,f
  2116  033D  30FF               	movlw	255
  2117  033E  05FB               	andwf	___xxtofl@arg+1,f
  2118  033F  307F               	movlw	127
  2119  0340  05FC               	andwf	___xxtofl@arg+2,f
  2120  0341  30FF               	movlw	255
  2121  0342  05FD               	andwf	___xxtofl@arg+3,f
  2122  0343                     l768:
  2123  0343  1003               	clrc
  2124  0344  0CF9               	rrf	___xxtofl@exp,f
  2125  0345                     l1747:
  2126  0345  0879               	movf	___xxtofl@exp,w
  2127  0346  00F4               	movwf	??___xxtofl
  2128  0347  01F5               	clrf	??___xxtofl+1
  2129  0348  01F6               	clrf	??___xxtofl+2
  2130  0349  01F7               	clrf	??___xxtofl+3
  2131  034A  3018               	movlw	24
  2132  034B                     u2005:
  2133  034B  35F4               	lslf	??___xxtofl,f
  2134  034C  0DF5               	rlf	??___xxtofl+1,f
  2135  034D  0DF6               	rlf	??___xxtofl+2,f
  2136  034E  0DF7               	rlf	??___xxtofl+3,f
  2137  034F                     u2000:
  2138  034F  0B89               	decfsz	9,f
  2139  0350  2B4B               	goto	u2005
  2140  0351  0874               	movf	??___xxtofl,w
  2141  0352  04FA               	iorwf	___xxtofl@arg,f
  2142  0353  0875               	movf	??___xxtofl+1,w
  2143  0354  04FB               	iorwf	___xxtofl@arg+1,f
  2144  0355  0876               	movf	??___xxtofl+2,w
  2145  0356  04FC               	iorwf	___xxtofl@arg+2,f
  2146  0357  0877               	movf	??___xxtofl+3,w
  2147  0358  04FD               	iorwf	___xxtofl@arg+3,f
  2148  0359                     l1749:
  2149  0359  0878               	movf	___xxtofl@sign,w
  2150  035A  1903               	btfsc	3,2
  2151  035B  2B5D               	goto	u2011
  2152  035C  2B5E               	goto	u2010
  2153  035D                     u2011:
  2154  035D  2B63               	goto	l1755
  2155  035E                     u2010:
  2156  035E                     l1751:
  2157  035E  1FF3               	btfss	___xxtofl@val+3,7
  2158  035F  2B61               	goto	u2021
  2159  0360  2B62               	goto	u2020
  2160  0361                     u2021:
  2161  0361  2B63               	goto	l1755
  2162  0362                     u2020:
  2163  0362                     l1753:
  2164  0362  17FD               	bsf	___xxtofl@arg+3,7
  2165  0363                     l1755:
  2166  0363  087D               	movf	___xxtofl@arg+3,w
  2167  0364  00F3               	movwf	?___xxtofl+3
  2168  0365  087C               	movf	___xxtofl@arg+2,w
  2169  0366  00F2               	movwf	?___xxtofl+2
  2170  0367  087B               	movf	___xxtofl@arg+1,w
  2171  0368  00F1               	movwf	?___xxtofl+1
  2172  0369  087A               	movf	___xxtofl@arg,w
  2173  036A  00F0               	movwf	?___xxtofl
  2174  036B                     l756:
  2175  036B  0008               	return
  2176  036C                     __end_of___xxtofl:
  2177                           
  2178                           	psect	text4
  2179  024B                     __ptext4:	
  2180 ;; *************** function ___fltol *****************
  2181 ;; Defined at:
  2182 ;;		line 43 in file "D:\Softwares\Microchip\xc8\v2.36\pic\sources\c99\common\fltol.c"
  2183 ;; Parameters:    Size  Location     Type
  2184 ;;  f1              4   46[BANK0 ] unsigned char 
  2185 ;; Auto vars:     Size  Location     Type
  2186 ;;  exp1            1   56[BANK0 ] unsigned char 
  2187 ;;  sign1           1   55[BANK0 ] unsigned char 
  2188 ;; Return value:  Size  Location     Type
  2189 ;;                  4   46[BANK0 ] long 
  2190 ;; Registers used:
  2191 ;;		wreg, status,2, status,0
  2192 ;; Tracked objects:
  2193 ;;		On entry : 0/0
  2194 ;;		On exit  : 0/0
  2195 ;;		Unchanged: 0/0
  2196 ;; Data sizes:     COMMON   BANK0   BANK1   BANK2
  2197 ;;      Params:         0       4       0       0
  2198 ;;      Locals:         0       2       0       0
  2199 ;;      Temps:          0       5       0       0
  2200 ;;      Totals:         0      11       0       0
  2201 ;;Total ram usage:       11 bytes
  2202 ;; Hardware stack levels used: 1
  2203 ;; This function calls:
  2204 ;;		Nothing
  2205 ;; This function is called by:
  2206 ;;		_calculateTemperatureFromVolatage
  2207 ;; This function uses a non-reentrant model
  2208 ;;
  2209                           
  2210  024B                     ___fltol:	
  2211                           ;psect for function ___fltol
  2212                           
  2213  024B                     l1345:	
  2214                           ;incstack = 0
  2215                           ; Regs used in ___fltol: [wreg+status,2+status,0]
  2216                           
  2217  024B  1003               	clrc
  2218  024C  0020               	movlb	0	; select bank0
  2219  024D  0D50               	rlf	___fltol@f1+2,w
  2220  024E  0D51               	rlf	___fltol@f1+3,w
  2221  024F  00D2               	movwf	??___fltol
  2222  0250  0852               	movf	??___fltol,w
  2223  0251  00D8               	movwf	___fltol@exp1
  2224  0252  0858               	movf	___fltol@exp1,w
  2225  0253  1D03               	btfss	3,2
  2226  0254  2A56               	goto	u1101
  2227  0255  2A57               	goto	u1100
  2228  0256                     u1101:
  2229  0256  2A60               	goto	l1351
  2230  0257                     u1100:
  2231  0257                     l1347:
  2232  0257  3000               	movlw	0
  2233  0258  00D1               	movwf	?___fltol+3
  2234  0259  3000               	movlw	0
  2235  025A  00D0               	movwf	?___fltol+2
  2236  025B  3000               	movlw	0
  2237  025C  00CF               	movwf	?___fltol+1
  2238  025D  3000               	movlw	0
  2239  025E  00CE               	movwf	?___fltol
  2240  025F  2ABF               	goto	l507
  2241  0260                     l1351:
  2242  0260  084E               	movf	___fltol@f1,w
  2243  0261  00D2               	movwf	??___fltol
  2244  0262  084F               	movf	___fltol@f1+1,w
  2245  0263  00D3               	movwf	??___fltol+1
  2246  0264  0850               	movf	___fltol@f1+2,w
  2247  0265  00D4               	movwf	??___fltol+2
  2248  0266  0851               	movf	___fltol@f1+3,w
  2249  0267  00D5               	movwf	??___fltol+3
  2250  0268  301F               	movlw	31
  2251  0269                     u1115:
  2252  0269  36D5               	lsrf	??___fltol+3,f
  2253  026A  0CD4               	rrf	??___fltol+2,f
  2254  026B  0CD3               	rrf	??___fltol+1,f
  2255  026C  0CD2               	rrf	??___fltol,f
  2256  026D                     u1110:
  2257  026D  0B89               	decfsz	9,f
  2258  026E  2A69               	goto	u1115
  2259  026F  0852               	movf	??___fltol,w
  2260  0270  00D6               	movwf	??___fltol+4
  2261  0271  0856               	movf	??___fltol+4,w
  2262  0272  00D7               	movwf	___fltol@sign1
  2263  0273                     l1353:
  2264  0273  17D0               	bsf	___fltol@f1+2,7
  2265  0274                     l1355:
  2266  0274  30FF               	movlw	255
  2267  0275  05CE               	andwf	___fltol@f1,f
  2268  0276  30FF               	movlw	255
  2269  0277  05CF               	andwf	___fltol@f1+1,f
  2270  0278  30FF               	movlw	255
  2271  0279  05D0               	andwf	___fltol@f1+2,f
  2272  027A  3000               	movlw	0
  2273  027B  05D1               	andwf	___fltol@f1+3,f
  2274  027C                     l1357:
  2275  027C  3096               	movlw	150
  2276  027D  02D8               	subwf	___fltol@exp1,f
  2277  027E                     l1359:
  2278  027E  1FD8               	btfss	___fltol@exp1,7
  2279  027F  2A81               	goto	u1121
  2280  0280  2A82               	goto	u1120
  2281  0281                     u1121:
  2282  0281  2A9A               	goto	l1369
  2283  0282                     u1120:
  2284  0282                     l1361:
  2285  0282  0858               	movf	___fltol@exp1,w
  2286  0283  3A80               	xorlw	128
  2287  0284  3E97               	addlw	151
  2288  0285  1803               	skipnc
  2289  0286  2A88               	goto	u1131
  2290  0287  2A89               	goto	u1130
  2291  0288                     u1131:
  2292  0288  2A8A               	goto	l1367
  2293  0289                     u1130:
  2294  0289  2A57               	goto	l1347
  2295  028A                     l1367:
  2296  028A  3001               	movlw	1
  2297  028B                     u1145:
  2298  028B  36D1               	lsrf	___fltol@f1+3,f
  2299  028C  0CD0               	rrf	___fltol@f1+2,f
  2300  028D  0CCF               	rrf	___fltol@f1+1,f
  2301  028E  0CCE               	rrf	___fltol@f1,f
  2302  028F  0B89               	decfsz	9,f
  2303  0290  2A8B               	goto	u1145
  2304  0291  3001               	movlw	1
  2305  0292  00D2               	movwf	??___fltol
  2306  0293  0852               	movf	??___fltol,w
  2307  0294  07D8               	addwf	___fltol@exp1,f
  2308  0295  1D03               	btfss	3,2
  2309  0296  2A98               	goto	u1151
  2310  0297  2A99               	goto	u1150
  2311  0298                     u1151:
  2312  0298  2A8A               	goto	l1367
  2313  0299                     u1150:
  2314  0299  2AAF               	goto	l1377
  2315  029A                     l1369:
  2316  029A  3020               	movlw	32
  2317  029B  0258               	subwf	___fltol@exp1,w
  2318  029C  1C03               	skipc
  2319  029D  2A9F               	goto	u1161
  2320  029E  2AA0               	goto	u1160
  2321  029F                     u1161:
  2322  029F  2AAA               	goto	l514
  2323  02A0                     u1160:
  2324  02A0  2A57               	goto	l1347
  2325  02A1                     l1375:
  2326  02A1  3001               	movlw	1
  2327  02A2                     u1175:
  2328  02A2  35CE               	lslf	___fltol@f1,f
  2329  02A3  0DCF               	rlf	___fltol@f1+1,f
  2330  02A4  0DD0               	rlf	___fltol@f1+2,f
  2331  02A5  0DD1               	rlf	___fltol@f1+3,f
  2332  02A6  0B89               	decfsz	9,f
  2333  02A7  2AA2               	goto	u1175
  2334  02A8  3001               	movlw	1
  2335  02A9  02D8               	subwf	___fltol@exp1,f
  2336  02AA                     l514:
  2337  02AA  0858               	movf	___fltol@exp1,w
  2338  02AB  1D03               	btfss	3,2
  2339  02AC  2AAE               	goto	u1181
  2340  02AD  2AAF               	goto	u1180
  2341  02AE                     u1181:
  2342  02AE  2AA1               	goto	l1375
  2343  02AF                     u1180:
  2344  02AF                     l1377:
  2345  02AF  0857               	movf	___fltol@sign1,w
  2346  02B0  1903               	btfsc	3,2
  2347  02B1  2AB3               	goto	u1191
  2348  02B2  2AB4               	goto	u1190
  2349  02B3                     u1191:
  2350  02B3  2ABF               	goto	l517
  2351  02B4                     u1190:
  2352  02B4                     l1379:
  2353  02B4  09CE               	comf	___fltol@f1,f
  2354  02B5  09CF               	comf	___fltol@f1+1,f
  2355  02B6  09D0               	comf	___fltol@f1+2,f
  2356  02B7  09D1               	comf	___fltol@f1+3,f
  2357  02B8  0ACE               	incf	___fltol@f1,f
  2358  02B9  1903               	skipnz
  2359  02BA  0ACF               	incf	___fltol@f1+1,f
  2360  02BB  1903               	skipnz
  2361  02BC  0AD0               	incf	___fltol@f1+2,f
  2362  02BD  1903               	skipnz
  2363  02BE  0AD1               	incf	___fltol@f1+3,f
  2364  02BF                     l517:
  2365  02BF                     l507:
  2366  02BF  0008               	return
  2367  02C0                     __end_of___fltol:
  2368                           
  2369                           	psect	text5
  2370  05A4                     __ptext5:	
  2371 ;; *************** function ___flmul *****************
  2372 ;; Defined at:
  2373 ;;		line 8 in file "D:\Softwares\Microchip\xc8\v2.36\pic\sources\c99\common\sprcmul.c"
  2374 ;; Parameters:    Size  Location     Type
  2375 ;;  b               4    0[BANK0 ] long 
  2376 ;;  a               4    4[BANK0 ] long 
  2377 ;; Auto vars:     Size  Location     Type
  2378 ;;  prod            4   20[BANK0 ] struct .
  2379 ;;  grs             4   14[BANK0 ] unsigned long 
  2380 ;;  temp            2   24[BANK0 ] struct .
  2381 ;;  bexp            1   19[BANK0 ] unsigned char 
  2382 ;;  aexp            1   18[BANK0 ] unsigned char 
  2383 ;;  sign            1   13[BANK0 ] unsigned char 
  2384 ;; Return value:  Size  Location     Type
  2385 ;;                  4    0[BANK0 ] unsigned char 
  2386 ;; Registers used:
  2387 ;;		wreg, status,2, status,0, pclath, cstack
  2388 ;; Tracked objects:
  2389 ;;		On entry : 0/0
  2390 ;;		On exit  : 0/0
  2391 ;;		Unchanged: 0/0
  2392 ;; Data sizes:     COMMON   BANK0   BANK1   BANK2
  2393 ;;      Params:         0       8       0       0
  2394 ;;      Locals:         0      13       0       0
  2395 ;;      Temps:          0       5       0       0
  2396 ;;      Totals:         0      26       0       0
  2397 ;;Total ram usage:       26 bytes
  2398 ;; Hardware stack levels used: 1
  2399 ;; Hardware stack levels required when called: 1
  2400 ;; This function calls:
  2401 ;;		__Umul8_16
  2402 ;; This function is called by:
  2403 ;;		_calculateTemperatureFromVolatage
  2404 ;; This function uses a non-reentrant model
  2405 ;;
  2406                           
  2407  05A4                     ___flmul:	
  2408                           ;psect for function ___flmul
  2409                           
  2410  05A4                     l1575:	
  2411                           ;incstack = 0
  2412                           ; Regs used in ___flmul: [wreg+status,2+status,0+pclath+cstack]
  2413                           
  2414  05A4  0020               	movlb	0	; select bank0
  2415  05A5  0823               	movf	___flmul@b+3,w
  2416  05A6  3980               	andlw	128
  2417  05A7  00A8               	movwf	??___flmul
  2418  05A8  0828               	movf	??___flmul,w
  2419  05A9  00AD               	movwf	___flmul@sign
  2420  05AA                     l1577:
  2421  05AA  3523               	lslf	___flmul@b+3,w
  2422  05AB  00A8               	movwf	??___flmul
  2423  05AC  0828               	movf	??___flmul,w
  2424  05AD  00B3               	movwf	___flmul@bexp
  2425  05AE                     l1579:
  2426  05AE  1FA2               	btfss	___flmul@b+2,7
  2427  05AF  2DB1               	goto	u1631
  2428  05B0  2DB2               	goto	u1630
  2429  05B1                     u1631:
  2430  05B1  2DB3               	goto	l1583
  2431  05B2                     u1630:
  2432  05B2                     l1581:
  2433  05B2  1433               	bsf	___flmul@bexp,0
  2434  05B3                     l1583:
  2435  05B3  0833               	movf	___flmul@bexp,w
  2436  05B4  1903               	btfsc	3,2
  2437  05B5  2DB7               	goto	u1641
  2438  05B6  2DB8               	goto	u1640
  2439  05B7                     u1641:
  2440  05B7  2DC7               	goto	l1591
  2441  05B8                     u1640:
  2442  05B8                     l1585:
  2443  05B8  0A33               	incf	___flmul@bexp,w
  2444  05B9  1D03               	btfss	3,2
  2445  05BA  2DBC               	goto	u1651
  2446  05BB  2DBD               	goto	u1650
  2447  05BC                     u1651:
  2448  05BC  2DC5               	goto	l1589
  2449  05BD                     u1650:
  2450  05BD                     l1587:
  2451  05BD  3000               	movlw	0
  2452  05BE  00A3               	movwf	___flmul@b+3
  2453  05BF  3000               	movlw	0
  2454  05C0  00A2               	movwf	___flmul@b+2
  2455  05C1  3000               	movlw	0
  2456  05C2  00A1               	movwf	___flmul@b+1
  2457  05C3  3000               	movlw	0
  2458  05C4  00A0               	movwf	___flmul@b
  2459  05C5                     l1589:
  2460  05C5  17A2               	bsf	___flmul@b+2,7
  2461  05C6  2DCF               	goto	l1593
  2462  05C7                     l1591:
  2463  05C7  3000               	movlw	0
  2464  05C8  00A3               	movwf	___flmul@b+3
  2465  05C9  3000               	movlw	0
  2466  05CA  00A2               	movwf	___flmul@b+2
  2467  05CB  3000               	movlw	0
  2468  05CC  00A1               	movwf	___flmul@b+1
  2469  05CD  3000               	movlw	0
  2470  05CE  00A0               	movwf	___flmul@b
  2471  05CF                     l1593:
  2472  05CF  0827               	movf	___flmul@a+3,w
  2473  05D0  3980               	andlw	128
  2474  05D1  00A8               	movwf	??___flmul
  2475  05D2  0828               	movf	??___flmul,w
  2476  05D3  06AD               	xorwf	___flmul@sign,f
  2477  05D4                     l1595:
  2478  05D4  3527               	lslf	___flmul@a+3,w
  2479  05D5  00A8               	movwf	??___flmul
  2480  05D6  0828               	movf	??___flmul,w
  2481  05D7  00B2               	movwf	___flmul@aexp
  2482  05D8                     l1597:
  2483  05D8  1FA6               	btfss	___flmul@a+2,7
  2484  05D9  2DDB               	goto	u1661
  2485  05DA  2DDC               	goto	u1660
  2486  05DB                     u1661:
  2487  05DB  2DDD               	goto	l1601
  2488  05DC                     u1660:
  2489  05DC                     l1599:
  2490  05DC  1432               	bsf	___flmul@aexp,0
  2491  05DD                     l1601:
  2492  05DD  0832               	movf	___flmul@aexp,w
  2493  05DE  1903               	btfsc	3,2
  2494  05DF  2DE1               	goto	u1671
  2495  05E0  2DE2               	goto	u1670
  2496  05E1                     u1671:
  2497  05E1  2DF1               	goto	l1609
  2498  05E2                     u1670:
  2499  05E2                     l1603:
  2500  05E2  0A32               	incf	___flmul@aexp,w
  2501  05E3  1D03               	btfss	3,2
  2502  05E4  2DE6               	goto	u1681
  2503  05E5  2DE7               	goto	u1680
  2504  05E6                     u1681:
  2505  05E6  2DEF               	goto	l1607
  2506  05E7                     u1680:
  2507  05E7                     l1605:
  2508  05E7  3000               	movlw	0
  2509  05E8  00A7               	movwf	___flmul@a+3
  2510  05E9  3000               	movlw	0
  2511  05EA  00A6               	movwf	___flmul@a+2
  2512  05EB  3000               	movlw	0
  2513  05EC  00A5               	movwf	___flmul@a+1
  2514  05ED  3000               	movlw	0
  2515  05EE  00A4               	movwf	___flmul@a
  2516  05EF                     l1607:
  2517  05EF  17A6               	bsf	___flmul@a+2,7
  2518  05F0  2DF9               	goto	l1611
  2519  05F1                     l1609:
  2520  05F1  3000               	movlw	0
  2521  05F2  00A7               	movwf	___flmul@a+3
  2522  05F3  3000               	movlw	0
  2523  05F4  00A6               	movwf	___flmul@a+2
  2524  05F5  3000               	movlw	0
  2525  05F6  00A5               	movwf	___flmul@a+1
  2526  05F7  3000               	movlw	0
  2527  05F8  00A4               	movwf	___flmul@a
  2528  05F9                     l1611:
  2529  05F9  0832               	movf	___flmul@aexp,w
  2530  05FA  1903               	btfsc	3,2
  2531  05FB  2DFD               	goto	u1691
  2532  05FC  2DFE               	goto	u1690
  2533  05FD                     u1691:
  2534  05FD  2E03               	goto	l1615
  2535  05FE                     u1690:
  2536  05FE                     l1613:
  2537  05FE  0833               	movf	___flmul@bexp,w
  2538  05FF  1D03               	btfss	3,2
  2539  0600  2E02               	goto	u1701
  2540  0601  2E03               	goto	u1700
  2541  0602                     u1701:
  2542  0602  2E0C               	goto	l1619
  2543  0603                     u1700:
  2544  0603                     l1615:
  2545  0603  3000               	movlw	0
  2546  0604  00A3               	movwf	?___flmul+3
  2547  0605  3000               	movlw	0
  2548  0606  00A2               	movwf	?___flmul+2
  2549  0607  3000               	movlw	0
  2550  0608  00A1               	movwf	?___flmul+1
  2551  0609  3000               	movlw	0
  2552  060A  00A0               	movwf	?___flmul
  2553  060B  2FFA               	goto	l710
  2554  060C                     l1619:
  2555  060C  0820               	movf	___flmul@b,w
  2556  060D  00A8               	movwf	??___flmul
  2557  060E  0828               	movf	??___flmul,w
  2558  060F  00F0               	movwf	__Umul8_16@multiplicand
  2559  0610  0826               	movf	___flmul@a+2,w
  2560  0611  3181  215A  3185   	fcall	__Umul8_16
  2561  0614  0871               	movf	?__Umul8_16+1,w
  2562  0615  0020               	movlb	0	; select bank0
  2563  0616  00B9               	movwf	___flmul@temp+1
  2564  0617  0870               	movf	?__Umul8_16,w
  2565  0618  00B8               	movwf	___flmul@temp
  2566  0619                     l1621:
  2567  0619  0838               	movf	___flmul@temp,w
  2568  061A  00A8               	movwf	??___flmul
  2569  061B  01A9               	clrf	??___flmul+1
  2570  061C  01AA               	clrf	??___flmul+2
  2571  061D  01AB               	clrf	??___flmul+3
  2572  061E  082B               	movf	??___flmul+3,w
  2573  061F  00B1               	movwf	___flmul@grs+3
  2574  0620  082A               	movf	??___flmul+2,w
  2575  0621  00B0               	movwf	___flmul@grs+2
  2576  0622  0829               	movf	??___flmul+1,w
  2577  0623  00AF               	movwf	___flmul@grs+1
  2578  0624  0828               	movf	??___flmul,w
  2579  0625  00AE               	movwf	___flmul@grs
  2580  0626                     l1623:
  2581  0626  0839               	movf	___flmul@temp+1,w
  2582  0627  00A8               	movwf	??___flmul
  2583  0628  01A9               	clrf	??___flmul+1
  2584  0629  01AA               	clrf	??___flmul+2
  2585  062A  01AB               	clrf	??___flmul+3
  2586  062B  082B               	movf	??___flmul+3,w
  2587  062C  00B7               	movwf	___flmul@prod+3
  2588  062D  082A               	movf	??___flmul+2,w
  2589  062E  00B6               	movwf	___flmul@prod+2
  2590  062F  0829               	movf	??___flmul+1,w
  2591  0630  00B5               	movwf	___flmul@prod+1
  2592  0631  0828               	movf	??___flmul,w
  2593  0632  00B4               	movwf	___flmul@prod
  2594  0633  0821               	movf	___flmul@b+1,w
  2595  0634  00A8               	movwf	??___flmul
  2596  0635  0828               	movf	??___flmul,w
  2597  0636  00F0               	movwf	__Umul8_16@multiplicand
  2598  0637  0825               	movf	___flmul@a+1,w
  2599  0638  3181  215A  3185   	fcall	__Umul8_16
  2600  063B  0871               	movf	?__Umul8_16+1,w
  2601  063C  0020               	movlb	0	; select bank0
  2602  063D  00B9               	movwf	___flmul@temp+1
  2603  063E  0870               	movf	?__Umul8_16,w
  2604  063F  00B8               	movwf	___flmul@temp
  2605  0640                     l1625:
  2606  0640  0838               	movf	___flmul@temp,w
  2607  0641  00A8               	movwf	??___flmul
  2608  0642  01A9               	clrf	??___flmul+1
  2609  0643  01AA               	clrf	??___flmul+2
  2610  0644  01AB               	clrf	??___flmul+3
  2611  0645  0828               	movf	??___flmul,w
  2612  0646  07AE               	addwf	___flmul@grs,f
  2613  0647  0829               	movf	??___flmul+1,w
  2614  0648  3DAF               	addwfc	___flmul@grs+1,f
  2615  0649  082A               	movf	??___flmul+2,w
  2616  064A  3DB0               	addwfc	___flmul@grs+2,f
  2617  064B  082B               	movf	??___flmul+3,w
  2618  064C  3DB1               	addwfc	___flmul@grs+3,f
  2619  064D                     l1627:
  2620  064D  0839               	movf	___flmul@temp+1,w
  2621  064E  00A8               	movwf	??___flmul
  2622  064F  01A9               	clrf	??___flmul+1
  2623  0650  01AA               	clrf	??___flmul+2
  2624  0651  01AB               	clrf	??___flmul+3
  2625  0652  0828               	movf	??___flmul,w
  2626  0653  07B4               	addwf	___flmul@prod,f
  2627  0654  0829               	movf	??___flmul+1,w
  2628  0655  3DB5               	addwfc	___flmul@prod+1,f
  2629  0656  082A               	movf	??___flmul+2,w
  2630  0657  3DB6               	addwfc	___flmul@prod+2,f
  2631  0658  082B               	movf	??___flmul+3,w
  2632  0659  3DB7               	addwfc	___flmul@prod+3,f
  2633  065A  0822               	movf	___flmul@b+2,w
  2634  065B  00A8               	movwf	??___flmul
  2635  065C  0828               	movf	??___flmul,w
  2636  065D  00F0               	movwf	__Umul8_16@multiplicand
  2637  065E  0824               	movf	___flmul@a,w
  2638  065F  3181  215A  3185   	fcall	__Umul8_16
  2639  0662  0871               	movf	?__Umul8_16+1,w
  2640  0663  0020               	movlb	0	; select bank0
  2641  0664  00B9               	movwf	___flmul@temp+1
  2642  0665  0870               	movf	?__Umul8_16,w
  2643  0666  00B8               	movwf	___flmul@temp
  2644  0667                     l1629:
  2645  0667  0838               	movf	___flmul@temp,w
  2646  0668  00A8               	movwf	??___flmul
  2647  0669  01A9               	clrf	??___flmul+1
  2648  066A  01AA               	clrf	??___flmul+2
  2649  066B  01AB               	clrf	??___flmul+3
  2650  066C  0828               	movf	??___flmul,w
  2651  066D  07AE               	addwf	___flmul@grs,f
  2652  066E  0829               	movf	??___flmul+1,w
  2653  066F  3DAF               	addwfc	___flmul@grs+1,f
  2654  0670  082A               	movf	??___flmul+2,w
  2655  0671  3DB0               	addwfc	___flmul@grs+2,f
  2656  0672  082B               	movf	??___flmul+3,w
  2657  0673  3DB1               	addwfc	___flmul@grs+3,f
  2658  0674                     l1631:
  2659  0674  0839               	movf	___flmul@temp+1,w
  2660  0675  00A8               	movwf	??___flmul
  2661  0676  01A9               	clrf	??___flmul+1
  2662  0677  01AA               	clrf	??___flmul+2
  2663  0678  01AB               	clrf	??___flmul+3
  2664  0679  0828               	movf	??___flmul,w
  2665  067A  07B4               	addwf	___flmul@prod,f
  2666  067B  0829               	movf	??___flmul+1,w
  2667  067C  3DB5               	addwfc	___flmul@prod+1,f
  2668  067D  082A               	movf	??___flmul+2,w
  2669  067E  3DB6               	addwfc	___flmul@prod+2,f
  2670  067F  082B               	movf	??___flmul+3,w
  2671  0680  3DB7               	addwfc	___flmul@prod+3,f
  2672  0681                     l1633:
  2673  0681  3008               	movlw	8
  2674  0682                     u1715:
  2675  0682  35AE               	lslf	___flmul@grs,f
  2676  0683  0DAF               	rlf	___flmul@grs+1,f
  2677  0684  0DB0               	rlf	___flmul@grs+2,f
  2678  0685  0DB1               	rlf	___flmul@grs+3,f
  2679  0686  0B89               	decfsz	9,f
  2680  0687  2E82               	goto	u1715
  2681  0688                     l1635:
  2682  0688  0821               	movf	___flmul@b+1,w
  2683  0689  00A8               	movwf	??___flmul
  2684  068A  0828               	movf	??___flmul,w
  2685  068B  00F0               	movwf	__Umul8_16@multiplicand
  2686  068C  0824               	movf	___flmul@a,w
  2687  068D  3181  215A  3185   	fcall	__Umul8_16
  2688  0690  0871               	movf	?__Umul8_16+1,w
  2689  0691  0020               	movlb	0	; select bank0
  2690  0692  00B9               	movwf	___flmul@temp+1
  2691  0693  0870               	movf	?__Umul8_16,w
  2692  0694  00B8               	movwf	___flmul@temp
  2693  0695                     l1637:
  2694  0695  0838               	movf	___flmul@temp,w
  2695  0696  07AE               	addwf	___flmul@grs,f
  2696  0697  0839               	movf	___flmul@temp+1,w
  2697  0698  3DAF               	addwfc	___flmul@grs+1,f
  2698  0699  3000               	movlw	0
  2699  069A  3DB0               	addwfc	___flmul@grs+2,f
  2700  069B  3DB1               	addwfc	___flmul@grs+3,f
  2701  069C                     l1639:
  2702  069C  0820               	movf	___flmul@b,w
  2703  069D  00A8               	movwf	??___flmul
  2704  069E  0828               	movf	??___flmul,w
  2705  069F  00F0               	movwf	__Umul8_16@multiplicand
  2706  06A0  0825               	movf	___flmul@a+1,w
  2707  06A1  3181  215A  3185   	fcall	__Umul8_16
  2708  06A4  0871               	movf	?__Umul8_16+1,w
  2709  06A5  0020               	movlb	0	; select bank0
  2710  06A6  00B9               	movwf	___flmul@temp+1
  2711  06A7  0870               	movf	?__Umul8_16,w
  2712  06A8  00B8               	movwf	___flmul@temp
  2713  06A9                     l1641:
  2714  06A9  0838               	movf	___flmul@temp,w
  2715  06AA  07AE               	addwf	___flmul@grs,f
  2716  06AB  0839               	movf	___flmul@temp+1,w
  2717  06AC  3DAF               	addwfc	___flmul@grs+1,f
  2718  06AD  3000               	movlw	0
  2719  06AE  3DB0               	addwfc	___flmul@grs+2,f
  2720  06AF  3DB1               	addwfc	___flmul@grs+3,f
  2721  06B0                     l1643:
  2722  06B0  3008               	movlw	8
  2723  06B1                     u1725:
  2724  06B1  35AE               	lslf	___flmul@grs,f
  2725  06B2  0DAF               	rlf	___flmul@grs+1,f
  2726  06B3  0DB0               	rlf	___flmul@grs+2,f
  2727  06B4  0DB1               	rlf	___flmul@grs+3,f
  2728  06B5  0B89               	decfsz	9,f
  2729  06B6  2EB1               	goto	u1725
  2730  06B7  0820               	movf	___flmul@b,w
  2731  06B8  00A8               	movwf	??___flmul
  2732  06B9  0828               	movf	??___flmul,w
  2733  06BA  00F0               	movwf	__Umul8_16@multiplicand
  2734  06BB  0824               	movf	___flmul@a,w
  2735  06BC  3181  215A  3185   	fcall	__Umul8_16
  2736  06BF  0871               	movf	?__Umul8_16+1,w
  2737  06C0  0020               	movlb	0	; select bank0
  2738  06C1  00B9               	movwf	___flmul@temp+1
  2739  06C2  0870               	movf	?__Umul8_16,w
  2740  06C3  00B8               	movwf	___flmul@temp
  2741  06C4                     l1645:
  2742  06C4  0838               	movf	___flmul@temp,w
  2743  06C5  07AE               	addwf	___flmul@grs,f
  2744  06C6  0839               	movf	___flmul@temp+1,w
  2745  06C7  3DAF               	addwfc	___flmul@grs+1,f
  2746  06C8  3000               	movlw	0
  2747  06C9  3DB0               	addwfc	___flmul@grs+2,f
  2748  06CA  3DB1               	addwfc	___flmul@grs+3,f
  2749  06CB                     l1647:
  2750  06CB  0821               	movf	___flmul@b+1,w
  2751  06CC  00A8               	movwf	??___flmul
  2752  06CD  0828               	movf	??___flmul,w
  2753  06CE  00F0               	movwf	__Umul8_16@multiplicand
  2754  06CF  0826               	movf	___flmul@a+2,w
  2755  06D0  3181  215A  3185   	fcall	__Umul8_16
  2756  06D3  0871               	movf	?__Umul8_16+1,w
  2757  06D4  0020               	movlb	0	; select bank0
  2758  06D5  00B9               	movwf	___flmul@temp+1
  2759  06D6  0870               	movf	?__Umul8_16,w
  2760  06D7  00B8               	movwf	___flmul@temp
  2761  06D8  0838               	movf	___flmul@temp,w
  2762  06D9  07B4               	addwf	___flmul@prod,f
  2763  06DA  0839               	movf	___flmul@temp+1,w
  2764  06DB  3DB5               	addwfc	___flmul@prod+1,f
  2765  06DC  3000               	movlw	0
  2766  06DD  3DB6               	addwfc	___flmul@prod+2,f
  2767  06DE  3DB7               	addwfc	___flmul@prod+3,f
  2768  06DF                     l1649:
  2769  06DF  0822               	movf	___flmul@b+2,w
  2770  06E0  00A8               	movwf	??___flmul
  2771  06E1  0828               	movf	??___flmul,w
  2772  06E2  00F0               	movwf	__Umul8_16@multiplicand
  2773  06E3  0825               	movf	___flmul@a+1,w
  2774  06E4  3181  215A  3185   	fcall	__Umul8_16
  2775  06E7  0871               	movf	?__Umul8_16+1,w
  2776  06E8  0020               	movlb	0	; select bank0
  2777  06E9  00B9               	movwf	___flmul@temp+1
  2778  06EA  0870               	movf	?__Umul8_16,w
  2779  06EB  00B8               	movwf	___flmul@temp
  2780  06EC                     l1651:
  2781  06EC  0838               	movf	___flmul@temp,w
  2782  06ED  07B4               	addwf	___flmul@prod,f
  2783  06EE  0839               	movf	___flmul@temp+1,w
  2784  06EF  3DB5               	addwfc	___flmul@prod+1,f
  2785  06F0  3000               	movlw	0
  2786  06F1  3DB6               	addwfc	___flmul@prod+2,f
  2787  06F2  3DB7               	addwfc	___flmul@prod+3,f
  2788  06F3  0822               	movf	___flmul@b+2,w
  2789  06F4  00A8               	movwf	??___flmul
  2790  06F5  0828               	movf	??___flmul,w
  2791  06F6  00F0               	movwf	__Umul8_16@multiplicand
  2792  06F7  0826               	movf	___flmul@a+2,w
  2793  06F8  3181  215A  3185   	fcall	__Umul8_16
  2794  06FB  0871               	movf	?__Umul8_16+1,w
  2795  06FC  0020               	movlb	0	; select bank0
  2796  06FD  00B9               	movwf	___flmul@temp+1
  2797  06FE  0870               	movf	?__Umul8_16,w
  2798  06FF  00B8               	movwf	___flmul@temp
  2799  0700                     l1653:
  2800  0700  0838               	movf	___flmul@temp,w
  2801  0701  00A8               	movwf	??___flmul
  2802  0702  0839               	movf	___flmul@temp+1,w
  2803  0703  00A9               	movwf	??___flmul+1
  2804  0704  01AA               	clrf	??___flmul+2
  2805  0705  01AB               	clrf	??___flmul+3
  2806  0706  3008               	movlw	8
  2807  0707                     u1735:
  2808  0707  35A8               	lslf	??___flmul,f
  2809  0708  0DA9               	rlf	??___flmul+1,f
  2810  0709  0DAA               	rlf	??___flmul+2,f
  2811  070A  0DAB               	rlf	??___flmul+3,f
  2812  070B                     u1730:
  2813  070B  0B89               	decfsz	9,f
  2814  070C  2F07               	goto	u1735
  2815  070D  0828               	movf	??___flmul,w
  2816  070E  07B4               	addwf	___flmul@prod,f
  2817  070F  0829               	movf	??___flmul+1,w
  2818  0710  3DB5               	addwfc	___flmul@prod+1,f
  2819  0711  082A               	movf	??___flmul+2,w
  2820  0712  3DB6               	addwfc	___flmul@prod+2,f
  2821  0713  082B               	movf	??___flmul+3,w
  2822  0714  3DB7               	addwfc	___flmul@prod+3,f
  2823  0715                     l1655:
  2824  0715  082E               	movf	___flmul@grs,w
  2825  0716  00A8               	movwf	??___flmul
  2826  0717  082F               	movf	___flmul@grs+1,w
  2827  0718  00A9               	movwf	??___flmul+1
  2828  0719  0830               	movf	___flmul@grs+2,w
  2829  071A  00AA               	movwf	??___flmul+2
  2830  071B  0831               	movf	___flmul@grs+3,w
  2831  071C  00AB               	movwf	??___flmul+3
  2832  071D  3018               	movlw	24
  2833  071E                     u1745:
  2834  071E  36AB               	lsrf	??___flmul+3,f
  2835  071F  0CAA               	rrf	??___flmul+2,f
  2836  0720  0CA9               	rrf	??___flmul+1,f
  2837  0721  0CA8               	rrf	??___flmul,f
  2838  0722                     u1740:
  2839  0722  0B89               	decfsz	9,f
  2840  0723  2F1E               	goto	u1745
  2841  0724  0828               	movf	??___flmul,w
  2842  0725  07B4               	addwf	___flmul@prod,f
  2843  0726  0829               	movf	??___flmul+1,w
  2844  0727  3DB5               	addwfc	___flmul@prod+1,f
  2845  0728  082A               	movf	??___flmul+2,w
  2846  0729  3DB6               	addwfc	___flmul@prod+2,f
  2847  072A  082B               	movf	??___flmul+3,w
  2848  072B  3DB7               	addwfc	___flmul@prod+3,f
  2849  072C                     l1657:
  2850  072C  3008               	movlw	8
  2851  072D                     u1755:
  2852  072D  35AE               	lslf	___flmul@grs,f
  2853  072E  0DAF               	rlf	___flmul@grs+1,f
  2854  072F  0DB0               	rlf	___flmul@grs+2,f
  2855  0730  0DB1               	rlf	___flmul@grs+3,f
  2856  0731  0B89               	decfsz	9,f
  2857  0732  2F2D               	goto	u1755
  2858  0733                     l1659:
  2859  0733  0833               	movf	___flmul@bexp,w
  2860  0734  0732               	addwf	___flmul@aexp,w
  2861  0735  00A8               	movwf	??___flmul
  2862  0736  01A9               	clrf	??___flmul+1
  2863  0737  0DA9               	rlf	??___flmul+1,f
  2864  0738  0828               	movf	??___flmul,w
  2865  0739  3E82               	addlw	130
  2866  073A  00B8               	movwf	___flmul@temp
  2867  073B  30FF               	movlw	255
  2868  073C  3D29               	addwfc	??___flmul+1,w
  2869  073D  00B9               	movwf	___flmul@temp+1
  2870  073E  2F56               	goto	l1671
  2871  073F                     l1661:
  2872  073F  3001               	movlw	1
  2873  0740                     u1765:
  2874  0740  35B4               	lslf	___flmul@prod,f
  2875  0741  0DB5               	rlf	___flmul@prod+1,f
  2876  0742  0DB6               	rlf	___flmul@prod+2,f
  2877  0743  0DB7               	rlf	___flmul@prod+3,f
  2878  0744  0B89               	decfsz	9,f
  2879  0745  2F40               	goto	u1765
  2880  0746                     l1663:
  2881  0746  1FB1               	btfss	___flmul@grs+3,7
  2882  0747  2F49               	goto	u1771
  2883  0748  2F4A               	goto	u1770
  2884  0749                     u1771:
  2885  0749  2F4B               	goto	l1667
  2886  074A                     u1770:
  2887  074A                     l1665:
  2888  074A  1434               	bsf	___flmul@prod,0
  2889  074B                     l1667:
  2890  074B  3001               	movlw	1
  2891  074C                     u1785:
  2892  074C  35AE               	lslf	___flmul@grs,f
  2893  074D  0DAF               	rlf	___flmul@grs+1,f
  2894  074E  0DB0               	rlf	___flmul@grs+2,f
  2895  074F  0DB1               	rlf	___flmul@grs+3,f
  2896  0750  0B89               	decfsz	9,f
  2897  0751  2F4C               	goto	u1785
  2898  0752                     l1669:
  2899  0752  30FF               	movlw	255
  2900  0753  07B8               	addwf	___flmul@temp,f
  2901  0754  30FF               	movlw	255
  2902  0755  3DB9               	addwfc	___flmul@temp+1,f
  2903  0756                     l1671:
  2904  0756  1FB6               	btfss	___flmul@prod+2,7
  2905  0757  2F59               	goto	u1791
  2906  0758  2F5A               	goto	u1790
  2907  0759                     u1791:
  2908  0759  2F3F               	goto	l1661
  2909  075A                     u1790:
  2910  075A                     l1673:
  2911  075A  01B2               	clrf	___flmul@aexp
  2912  075B                     l1675:
  2913  075B  1FB1               	btfss	___flmul@grs+3,7
  2914  075C  2F5E               	goto	u1801
  2915  075D  2F5F               	goto	u1800
  2916  075E                     u1801:
  2917  075E  2F7B               	goto	l1683
  2918  075F                     u1800:
  2919  075F                     l1677:
  2920  075F  30FF               	movlw	255
  2921  0760  052E               	andwf	___flmul@grs,w
  2922  0761  00A8               	movwf	??___flmul
  2923  0762  30FF               	movlw	255
  2924  0763  052F               	andwf	___flmul@grs+1,w
  2925  0764  00A9               	movwf	??___flmul+1
  2926  0765  30FF               	movlw	255
  2927  0766  0530               	andwf	___flmul@grs+2,w
  2928  0767  00AA               	movwf	??___flmul+2
  2929  0768  307F               	movlw	127
  2930  0769  0531               	andwf	___flmul@grs+3,w
  2931  076A  00AB               	movwf	??___flmul+3
  2932  076B  082B               	movf	??___flmul+3,w
  2933  076C  042A               	iorwf	??___flmul+2,w
  2934  076D  0429               	iorwf	??___flmul+1,w
  2935  076E  0428               	iorwf	??___flmul,w
  2936  076F  1903               	skipnz
  2937  0770  2F72               	goto	u1811
  2938  0771  2F73               	goto	u1810
  2939  0772                     u1811:
  2940  0772  2F76               	goto	l716
  2941  0773                     u1810:
  2942  0773                     l1679:
  2943  0773  01B2               	clrf	___flmul@aexp
  2944  0774  0AB2               	incf	___flmul@aexp,f
  2945  0775  2F7B               	goto	l1683
  2946  0776                     l716:
  2947  0776  1C34               	btfss	___flmul@prod,0
  2948  0777  2F79               	goto	u1821
  2949  0778  2F7A               	goto	u1820
  2950  0779                     u1821:
  2951  0779  2F7B               	goto	l1683
  2952  077A                     u1820:
  2953  077A  2F73               	goto	l1679
  2954  077B                     l1683:
  2955  077B  0832               	movf	___flmul@aexp,w
  2956  077C  1903               	btfsc	3,2
  2957  077D  2F7F               	goto	u1831
  2958  077E  2F80               	goto	u1830
  2959  077F                     u1831:
  2960  077F  2FA8               	goto	l1693
  2961  0780                     u1830:
  2962  0780                     l1685:
  2963  0780  3001               	movlw	1
  2964  0781  07B4               	addwf	___flmul@prod,f
  2965  0782  3000               	movlw	0
  2966  0783  3DB5               	addwfc	___flmul@prod+1,f
  2967  0784  3000               	movlw	0
  2968  0785  3DB6               	addwfc	___flmul@prod+2,f
  2969  0786  3000               	movlw	0
  2970  0787  3DB7               	addwfc	___flmul@prod+3,f
  2971  0788                     l1687:
  2972  0788  1C37               	btfss	___flmul@prod+3,0
  2973  0789  2F8B               	goto	u1841
  2974  078A  2F8C               	goto	u1840
  2975  078B                     u1841:
  2976  078B  2FA8               	goto	l1693
  2977  078C                     u1840:
  2978  078C                     l1689:
  2979  078C  0834               	movf	___flmul@prod,w
  2980  078D  00A8               	movwf	??___flmul
  2981  078E  0835               	movf	___flmul@prod+1,w
  2982  078F  00A9               	movwf	??___flmul+1
  2983  0790  0836               	movf	___flmul@prod+2,w
  2984  0791  00AA               	movwf	??___flmul+2
  2985  0792  0837               	movf	___flmul@prod+3,w
  2986  0793  00AB               	movwf	??___flmul+3
  2987  0794  3001               	movlw	1
  2988  0795  00AC               	movwf	??___flmul+4
  2989  0796                     u1855:
  2990  0796  37AB               	asrf	??___flmul+3,f
  2991  0797  0CAA               	rrf	??___flmul+2,f
  2992  0798  0CA9               	rrf	??___flmul+1,f
  2993  0799  0CA8               	rrf	??___flmul,f
  2994  079A                     u1850:
  2995  079A  0BAC               	decfsz	??___flmul+4,f
  2996  079B  2F96               	goto	u1855
  2997  079C  082B               	movf	??___flmul+3,w
  2998  079D  00B7               	movwf	___flmul@prod+3
  2999  079E  082A               	movf	??___flmul+2,w
  3000  079F  00B6               	movwf	___flmul@prod+2
  3001  07A0  0829               	movf	??___flmul+1,w
  3002  07A1  00B5               	movwf	___flmul@prod+1
  3003  07A2  0828               	movf	??___flmul,w
  3004  07A3  00B4               	movwf	___flmul@prod
  3005  07A4                     l1691:
  3006  07A4  3001               	movlw	1
  3007  07A5  07B8               	addwf	___flmul@temp,f
  3008  07A6  3000               	movlw	0
  3009  07A7  3DB9               	addwfc	___flmul@temp+1,f
  3010  07A8                     l1693:
  3011  07A8  0839               	movf	___flmul@temp+1,w
  3012  07A9  3A80               	xorlw	128
  3013  07AA  00A8               	movwf	??___flmul
  3014  07AB  3080               	movlw	128
  3015  07AC  0228               	subwf	??___flmul,w
  3016  07AD  1D03               	skipz
  3017  07AE  2FB1               	goto	u1865
  3018  07AF  30FF               	movlw	255
  3019  07B0  0238               	subwf	___flmul@temp,w
  3020  07B1                     u1865:
  3021  07B1  1C03               	skipc
  3022  07B2  2FB4               	goto	u1861
  3023  07B3  2FB5               	goto	u1860
  3024  07B4                     u1861:
  3025  07B4  2FBF               	goto	l1697
  3026  07B5                     u1860:
  3027  07B5                     l1695:
  3028  07B5  307F               	movlw	127
  3029  07B6  0020               	movlb	0	; select bank0
  3030  07B7  00B7               	movwf	___flmul@prod+3
  3031  07B8  3080               	movlw	128
  3032  07B9  00B6               	movwf	___flmul@prod+2
  3033  07BA  3000               	movlw	0
  3034  07BB  00B5               	movwf	___flmul@prod+1
  3035  07BC  3000               	movlw	0
  3036  07BD  00B4               	movwf	___flmul@prod
  3037  07BE  2FEE               	goto	l722
  3038  07BF                     l1697:
  3039  07BF  0020               	movlb	0	; select bank0
  3040  07C0  0839               	movf	___flmul@temp+1,w
  3041  07C1  3A80               	xorlw	128
  3042  07C2  00A8               	movwf	??___flmul
  3043  07C3  3080               	movlw	128
  3044  07C4  0228               	subwf	??___flmul,w
  3045  07C5  1D03               	skipz
  3046  07C6  2FC9               	goto	u1875
  3047  07C7  3001               	movlw	1
  3048  07C8  0238               	subwf	___flmul@temp,w
  3049  07C9                     u1875:
  3050  07C9  1803               	skipnc
  3051  07CA  2FCC               	goto	u1871
  3052  07CB  2FCD               	goto	u1870
  3053  07CC                     u1871:
  3054  07CC  2FD8               	goto	l1703
  3055  07CD                     u1870:
  3056  07CD                     l1699:
  3057  07CD  3000               	movlw	0
  3058  07CE  0020               	movlb	0	; select bank0
  3059  07CF  00B7               	movwf	___flmul@prod+3
  3060  07D0  3000               	movlw	0
  3061  07D1  00B6               	movwf	___flmul@prod+2
  3062  07D2  3000               	movlw	0
  3063  07D3  00B5               	movwf	___flmul@prod+1
  3064  07D4  3000               	movlw	0
  3065  07D5  00B4               	movwf	___flmul@prod
  3066  07D6                     l1701:
  3067  07D6  01AD               	clrf	___flmul@sign
  3068  07D7  2FEE               	goto	l722
  3069  07D8                     l1703:
  3070  07D8  0020               	movlb	0	; select bank0
  3071  07D9  0838               	movf	___flmul@temp,w
  3072  07DA  00A8               	movwf	??___flmul
  3073  07DB  0828               	movf	??___flmul,w
  3074  07DC  00B3               	movwf	___flmul@bexp
  3075  07DD  30FF               	movlw	255
  3076  07DE  05B4               	andwf	___flmul@prod,f
  3077  07DF  30FF               	movlw	255
  3078  07E0  05B5               	andwf	___flmul@prod+1,f
  3079  07E1  307F               	movlw	127
  3080  07E2  05B6               	andwf	___flmul@prod+2,f
  3081  07E3  3000               	movlw	0
  3082  07E4  05B7               	andwf	___flmul@prod+3,f
  3083  07E5                     l1705:
  3084  07E5  1C33               	btfss	___flmul@bexp,0
  3085  07E6  2FE8               	goto	u1881
  3086  07E7  2FE9               	goto	u1880
  3087  07E8                     u1881:
  3088  07E8  2FEA               	goto	l1709
  3089  07E9                     u1880:
  3090  07E9                     l1707:
  3091  07E9  17B6               	bsf	___flmul@prod+2,7
  3092  07EA                     l1709:
  3093  07EA  3633               	lsrf	___flmul@bexp,w
  3094  07EB  00A8               	movwf	??___flmul
  3095  07EC  0828               	movf	??___flmul,w
  3096  07ED  00B7               	movwf	___flmul@prod+3
  3097  07EE                     l722:
  3098  07EE  082D               	movf	___flmul@sign,w
  3099  07EF  00A8               	movwf	??___flmul
  3100  07F0  0828               	movf	??___flmul,w
  3101  07F1  04B7               	iorwf	___flmul@prod+3,f
  3102  07F2                     l1711:
  3103  07F2  0837               	movf	___flmul@prod+3,w
  3104  07F3  00A3               	movwf	?___flmul+3
  3105  07F4  0836               	movf	___flmul@prod+2,w
  3106  07F5  00A2               	movwf	?___flmul+2
  3107  07F6  0835               	movf	___flmul@prod+1,w
  3108  07F7  00A1               	movwf	?___flmul+1
  3109  07F8  0834               	movf	___flmul@prod,w
  3110  07F9  00A0               	movwf	?___flmul
  3111  07FA                     l710:
  3112  07FA  0008               	return
  3113  07FB                     __end_of___flmul:
  3114                           
  3115                           	psect	text6
  3116  015A                     __ptext6:	
  3117 ;; *************** function __Umul8_16 *****************
  3118 ;; Defined at:
  3119 ;;		line 4 in file "D:\Softwares\Microchip\xc8\v2.36\pic\sources\c99\common\Umul8_16.c"
  3120 ;; Parameters:    Size  Location     Type
  3121 ;;  multiplier      1    wreg     unsigned char 
  3122 ;;  multiplicand    1    0[COMMON] unsigned char 
  3123 ;; Auto vars:     Size  Location     Type
  3124 ;;  multiplier      1    8[COMMON] unsigned char 
  3125 ;;  word_mpld       2    6[COMMON] unsigned int 
  3126 ;;  product         2    4[COMMON] unsigned int 
  3127 ;; Return value:  Size  Location     Type
  3128 ;;                  2    0[COMMON] unsigned int 
  3129 ;; Registers used:
  3130 ;;		wreg, status,2, status,0
  3131 ;; Tracked objects:
  3132 ;;		On entry : 0/0
  3133 ;;		On exit  : 0/0
  3134 ;;		Unchanged: 0/0
  3135 ;; Data sizes:     COMMON   BANK0   BANK1   BANK2
  3136 ;;      Params:         2       0       0       0
  3137 ;;      Locals:         5       0       0       0
  3138 ;;      Temps:          2       0       0       0
  3139 ;;      Totals:         9       0       0       0
  3140 ;;Total ram usage:        9 bytes
  3141 ;; Hardware stack levels used: 1
  3142 ;; This function calls:
  3143 ;;		Nothing
  3144 ;; This function is called by:
  3145 ;;		___flmul
  3146 ;; This function uses a non-reentrant model
  3147 ;;
  3148                           
  3149  015A                     __Umul8_16:	
  3150                           ;psect for function __Umul8_16
  3151                           
  3152                           
  3153                           ;incstack = 0
  3154                           ; Regs used in __Umul8_16: [wreg+status,2+status,0]
  3155                           ;__Umul8_16@multiplier stored from wreg
  3156  015A  00F8               	movwf	__Umul8_16@multiplier
  3157  015B                     l1331:
  3158  015B  01F4               	clrf	__Umul8_16@product
  3159  015C  01F5               	clrf	__Umul8_16@product+1
  3160  015D                     l1333:
  3161  015D  0870               	movf	__Umul8_16@multiplicand,w
  3162  015E  00F2               	movwf	??__Umul8_16
  3163  015F  01F3               	clrf	??__Umul8_16+1
  3164  0160  0872               	movf	??__Umul8_16,w
  3165  0161  00F6               	movwf	__Umul8_16@word_mpld
  3166  0162  0873               	movf	??__Umul8_16+1,w
  3167  0163  00F7               	movwf	__Umul8_16@word_mpld+1
  3168  0164                     l1335:
  3169  0164  1C78               	btfss	__Umul8_16@multiplier,0
  3170  0165  2967               	goto	u1071
  3171  0166  2968               	goto	u1070
  3172  0167                     u1071:
  3173  0167  296C               	goto	l729
  3174  0168                     u1070:
  3175  0168                     l1337:
  3176  0168  0876               	movf	__Umul8_16@word_mpld,w
  3177  0169  07F4               	addwf	__Umul8_16@product,f
  3178  016A  0877               	movf	__Umul8_16@word_mpld+1,w
  3179  016B  3DF5               	addwfc	__Umul8_16@product+1,f
  3180  016C                     l729:
  3181  016C  3001               	movlw	1
  3182  016D                     u1085:
  3183  016D  35F6               	lslf	__Umul8_16@word_mpld,f
  3184  016E  0DF7               	rlf	__Umul8_16@word_mpld+1,f
  3185  016F  0B89               	decfsz	9,f
  3186  0170  296D               	goto	u1085
  3187  0171  1003               	clrc
  3188  0172  0CF8               	rrf	__Umul8_16@multiplier,f
  3189  0173                     l1339:
  3190  0173  0878               	movf	__Umul8_16@multiplier,w
  3191  0174  1D03               	btfss	3,2
  3192  0175  2977               	goto	u1091
  3193  0176  2978               	goto	u1090
  3194  0177                     u1091:
  3195  0177  2964               	goto	l1335
  3196  0178                     u1090:
  3197  0178                     l1341:
  3198  0178  0875               	movf	__Umul8_16@product+1,w
  3199  0179  00F1               	movwf	?__Umul8_16+1
  3200  017A  0874               	movf	__Umul8_16@product,w
  3201  017B  00F0               	movwf	?__Umul8_16
  3202  017C                     l731:
  3203  017C  0008               	return
  3204  017D                     __end_of__Umul8_16:
  3205                           
  3206                           	psect	text7
  3207  036C                     __ptext7:	
  3208 ;; *************** function ___fladd *****************
  3209 ;; Defined at:
  3210 ;;		line 10 in file "D:\Softwares\Microchip\xc8\v2.36\pic\sources\c99\common\sprcadd.c"
  3211 ;; Parameters:    Size  Location     Type
  3212 ;;  b               4   26[BANK0 ] unsigned int 
  3213 ;;  a               4   30[BANK0 ] unsigned int 
  3214 ;; Auto vars:     Size  Location     Type
  3215 ;;  grs             1   45[BANK0 ] unsigned char 
  3216 ;;  bexp            1   44[BANK0 ] unsigned char 
  3217 ;;  aexp            1   43[BANK0 ] unsigned char 
  3218 ;;  signs           1   42[BANK0 ] unsigned char 
  3219 ;; Return value:  Size  Location     Type
  3220 ;;                  4   26[BANK0 ] unsigned char 
  3221 ;; Registers used:
  3222 ;;		wreg, status,2, status,0
  3223 ;; Tracked objects:
  3224 ;;		On entry : 0/0
  3225 ;;		On exit  : 0/0
  3226 ;;		Unchanged: 0/0
  3227 ;; Data sizes:     COMMON   BANK0   BANK1   BANK2
  3228 ;;      Params:         0       8       0       0
  3229 ;;      Locals:         0       4       0       0
  3230 ;;      Temps:          0       8       0       0
  3231 ;;      Totals:         0      20       0       0
  3232 ;;Total ram usage:       20 bytes
  3233 ;; Hardware stack levels used: 1
  3234 ;; This function calls:
  3235 ;;		Nothing
  3236 ;; This function is called by:
  3237 ;;		_calculateTemperatureFromVolatage
  3238 ;; This function uses a non-reentrant model
  3239 ;;
  3240                           
  3241  036C                     ___fladd:	
  3242                           ;psect for function ___fladd
  3243                           
  3244  036C                     l1381:	
  3245                           ;incstack = 0
  3246                           ; Regs used in ___fladd: [wreg+status,2+status,0]
  3247                           
  3248  036C  0020               	movlb	0	; select bank0
  3249  036D  083D               	movf	___fladd@b+3,w
  3250  036E  3980               	andlw	128
  3251  036F  00C2               	movwf	??___fladd
  3252  0370  0842               	movf	??___fladd,w
  3253  0371  00CA               	movwf	___fladd@signs
  3254  0372                     l1383:
  3255  0372  353D               	lslf	___fladd@b+3,w
  3256  0373  00C2               	movwf	??___fladd
  3257  0374  0842               	movf	??___fladd,w
  3258  0375  00CC               	movwf	___fladd@bexp
  3259  0376                     l1385:
  3260  0376  1FBC               	btfss	___fladd@b+2,7
  3261  0377  2B79               	goto	u1201
  3262  0378  2B7A               	goto	u1200
  3263  0379                     u1201:
  3264  0379  2B7B               	goto	l1389
  3265  037A                     u1200:
  3266  037A                     l1387:
  3267  037A  144C               	bsf	___fladd@bexp,0
  3268  037B                     l1389:
  3269  037B  084C               	movf	___fladd@bexp,w
  3270  037C  1903               	btfsc	3,2
  3271  037D  2B7F               	goto	u1211
  3272  037E  2B80               	goto	u1210
  3273  037F                     u1211:
  3274  037F  2B90               	goto	l1399
  3275  0380                     u1210:
  3276  0380                     l1391:
  3277  0380  0A4C               	incf	___fladd@bexp,w
  3278  0381  1D03               	btfss	3,2
  3279  0382  2B84               	goto	u1221
  3280  0383  2B85               	goto	u1220
  3281  0384                     u1221:
  3282  0384  2B8D               	goto	l1395
  3283  0385                     u1220:
  3284  0385                     l1393:
  3285  0385  3000               	movlw	0
  3286  0386  00BD               	movwf	___fladd@b+3
  3287  0387  3000               	movlw	0
  3288  0388  00BC               	movwf	___fladd@b+2
  3289  0389  3000               	movlw	0
  3290  038A  00BB               	movwf	___fladd@b+1
  3291  038B  3000               	movlw	0
  3292  038C  00BA               	movwf	___fladd@b
  3293  038D                     l1395:
  3294  038D  17BC               	bsf	___fladd@b+2,7
  3295  038E                     l1397:
  3296  038E  01BD               	clrf	___fladd@b+3
  3297  038F  2B98               	goto	l1401
  3298  0390                     l1399:
  3299  0390  3000               	movlw	0
  3300  0391  00BD               	movwf	___fladd@b+3
  3301  0392  3000               	movlw	0
  3302  0393  00BC               	movwf	___fladd@b+2
  3303  0394  3000               	movlw	0
  3304  0395  00BB               	movwf	___fladd@b+1
  3305  0396  3000               	movlw	0
  3306  0397  00BA               	movwf	___fladd@b
  3307  0398                     l1401:
  3308  0398  0841               	movf	___fladd@a+3,w
  3309  0399  3980               	andlw	128
  3310  039A  00C2               	movwf	??___fladd
  3311  039B  0842               	movf	??___fladd,w
  3312  039C  00CB               	movwf	___fladd@aexp
  3313  039D                     l1403:
  3314  039D  084B               	movf	___fladd@aexp,w
  3315  039E  064A               	xorwf	___fladd@signs,w
  3316  039F  1903               	skipnz
  3317  03A0  2BA2               	goto	u1231
  3318  03A1  2BA3               	goto	u1230
  3319  03A2                     u1231:
  3320  03A2  2BA4               	goto	l1407
  3321  03A3                     u1230:
  3322  03A3                     l1405:
  3323  03A3  174A               	bsf	___fladd@signs,6
  3324  03A4                     l1407:
  3325  03A4  3541               	lslf	___fladd@a+3,w
  3326  03A5  00C2               	movwf	??___fladd
  3327  03A6  0842               	movf	??___fladd,w
  3328  03A7  00CB               	movwf	___fladd@aexp
  3329  03A8                     l1409:
  3330  03A8  1FC0               	btfss	___fladd@a+2,7
  3331  03A9  2BAB               	goto	u1241
  3332  03AA  2BAC               	goto	u1240
  3333  03AB                     u1241:
  3334  03AB  2BAD               	goto	l1413
  3335  03AC                     u1240:
  3336  03AC                     l1411:
  3337  03AC  144B               	bsf	___fladd@aexp,0
  3338  03AD                     l1413:
  3339  03AD  084B               	movf	___fladd@aexp,w
  3340  03AE  1903               	btfsc	3,2
  3341  03AF  2BB1               	goto	u1251
  3342  03B0  2BB2               	goto	u1250
  3343  03B1                     u1251:
  3344  03B1  2BC2               	goto	l1423
  3345  03B2                     u1250:
  3346  03B2                     l1415:
  3347  03B2  0A4B               	incf	___fladd@aexp,w
  3348  03B3  1D03               	btfss	3,2
  3349  03B4  2BB6               	goto	u1261
  3350  03B5  2BB7               	goto	u1260
  3351  03B6                     u1261:
  3352  03B6  2BBF               	goto	l1419
  3353  03B7                     u1260:
  3354  03B7                     l1417:
  3355  03B7  3000               	movlw	0
  3356  03B8  00C1               	movwf	___fladd@a+3
  3357  03B9  3000               	movlw	0
  3358  03BA  00C0               	movwf	___fladd@a+2
  3359  03BB  3000               	movlw	0
  3360  03BC  00BF               	movwf	___fladd@a+1
  3361  03BD  3000               	movlw	0
  3362  03BE  00BE               	movwf	___fladd@a
  3363  03BF                     l1419:
  3364  03BF  17C0               	bsf	___fladd@a+2,7
  3365  03C0                     l1421:
  3366  03C0  01C1               	clrf	___fladd@a+3
  3367  03C1  2BCA               	goto	l614
  3368  03C2                     l1423:
  3369  03C2  3000               	movlw	0
  3370  03C3  00C1               	movwf	___fladd@a+3
  3371  03C4  3000               	movlw	0
  3372  03C5  00C0               	movwf	___fladd@a+2
  3373  03C6  3000               	movlw	0
  3374  03C7  00BF               	movwf	___fladd@a+1
  3375  03C8  3000               	movlw	0
  3376  03C9  00BE               	movwf	___fladd@a
  3377  03CA                     l614:
  3378  03CA  084C               	movf	___fladd@bexp,w
  3379  03CB  024B               	subwf	___fladd@aexp,w
  3380  03CC  1803               	skipnc
  3381  03CD  2BCF               	goto	u1271
  3382  03CE  2BD0               	goto	u1270
  3383  03CF                     u1271:
  3384  03CF  2C14               	goto	l1459
  3385  03D0                     u1270:
  3386  03D0                     l1425:
  3387  03D0  1F4A               	btfss	___fladd@signs,6
  3388  03D1  2BD3               	goto	u1281
  3389  03D2  2BD4               	goto	u1280
  3390  03D3                     u1281:
  3391  03D3  2BD8               	goto	l1429
  3392  03D4                     u1280:
  3393  03D4                     l1427:
  3394  03D4  3080               	movlw	128
  3395  03D5  00C2               	movwf	??___fladd
  3396  03D6  0842               	movf	??___fladd,w
  3397  03D7  06CA               	xorwf	___fladd@signs,f
  3398  03D8                     l1429:
  3399  03D8  084C               	movf	___fladd@bexp,w
  3400  03D9  00C2               	movwf	??___fladd
  3401  03DA  0842               	movf	??___fladd,w
  3402  03DB  00CD               	movwf	___fladd@grs
  3403  03DC                     l1431:
  3404  03DC  084B               	movf	___fladd@aexp,w
  3405  03DD  00C2               	movwf	??___fladd
  3406  03DE  0842               	movf	??___fladd,w
  3407  03DF  00CC               	movwf	___fladd@bexp
  3408  03E0                     l1433:
  3409  03E0  084D               	movf	___fladd@grs,w
  3410  03E1  00C2               	movwf	??___fladd
  3411  03E2  0842               	movf	??___fladd,w
  3412  03E3  00CB               	movwf	___fladd@aexp
  3413  03E4                     l1435:
  3414  03E4  083A               	movf	___fladd@b,w
  3415  03E5  00C2               	movwf	??___fladd
  3416  03E6  0842               	movf	??___fladd,w
  3417  03E7  00CD               	movwf	___fladd@grs
  3418  03E8                     l1437:
  3419  03E8  083E               	movf	___fladd@a,w
  3420  03E9  00C2               	movwf	??___fladd
  3421  03EA  0842               	movf	??___fladd,w
  3422  03EB  00BA               	movwf	___fladd@b
  3423  03EC                     l1439:
  3424  03EC  084D               	movf	___fladd@grs,w
  3425  03ED  00C2               	movwf	??___fladd
  3426  03EE  0842               	movf	??___fladd,w
  3427  03EF  00BE               	movwf	___fladd@a
  3428  03F0                     l1441:
  3429  03F0  083B               	movf	___fladd@b+1,w
  3430  03F1  00C2               	movwf	??___fladd
  3431  03F2  0842               	movf	??___fladd,w
  3432  03F3  00CD               	movwf	___fladd@grs
  3433  03F4                     l1443:
  3434  03F4  083F               	movf	___fladd@a+1,w
  3435  03F5  00C2               	movwf	??___fladd
  3436  03F6  0842               	movf	??___fladd,w
  3437  03F7  00BB               	movwf	___fladd@b+1
  3438  03F8                     l1445:
  3439  03F8  084D               	movf	___fladd@grs,w
  3440  03F9  00C2               	movwf	??___fladd
  3441  03FA  0842               	movf	??___fladd,w
  3442  03FB  00BF               	movwf	___fladd@a+1
  3443  03FC                     l1447:
  3444  03FC  083C               	movf	___fladd@b+2,w
  3445  03FD  00C2               	movwf	??___fladd
  3446  03FE  0842               	movf	??___fladd,w
  3447  03FF  00CD               	movwf	___fladd@grs
  3448  0400                     l1449:
  3449  0400  0840               	movf	___fladd@a+2,w
  3450  0401  00C2               	movwf	??___fladd
  3451  0402  0842               	movf	??___fladd,w
  3452  0403  00BC               	movwf	___fladd@b+2
  3453  0404                     l1451:
  3454  0404  084D               	movf	___fladd@grs,w
  3455  0405  00C2               	movwf	??___fladd
  3456  0406  0842               	movf	??___fladd,w
  3457  0407  00C0               	movwf	___fladd@a+2
  3458  0408                     l1453:
  3459  0408  083D               	movf	___fladd@b+3,w
  3460  0409  00C2               	movwf	??___fladd
  3461  040A  0842               	movf	??___fladd,w
  3462  040B  00CD               	movwf	___fladd@grs
  3463  040C                     l1455:
  3464  040C  0841               	movf	___fladd@a+3,w
  3465  040D  00C2               	movwf	??___fladd
  3466  040E  0842               	movf	??___fladd,w
  3467  040F  00BD               	movwf	___fladd@b+3
  3468  0410                     l1457:
  3469  0410  084D               	movf	___fladd@grs,w
  3470  0411  00C2               	movwf	??___fladd
  3471  0412  0842               	movf	??___fladd,w
  3472  0413  00C1               	movwf	___fladd@a+3
  3473  0414                     l1459:
  3474  0414  01CD               	clrf	___fladd@grs
  3475  0415                     l1461:
  3476  0415  084B               	movf	___fladd@aexp,w
  3477  0416  00C2               	movwf	??___fladd
  3478  0417  01C3               	clrf	??___fladd+1
  3479  0418  0843               	movf	??___fladd+1,w
  3480  0419  00C5               	movwf	??___fladd+3
  3481  041A  084C               	movf	___fladd@bexp,w
  3482  041B  0242               	subwf	??___fladd,w
  3483  041C  00C4               	movwf	??___fladd+2
  3484  041D  1C03               	skipc
  3485  041E  03C5               	decf	??___fladd+3,f
  3486  041F  0845               	movf	??___fladd+3,w
  3487  0420  3A80               	xorlw	128
  3488  0421  00C6               	movwf	??___fladd+4
  3489  0422  3080               	movlw	128
  3490  0423  0246               	subwf	??___fladd+4,w
  3491  0424  1D03               	skipz
  3492  0425  2C28               	goto	u1295
  3493  0426  301A               	movlw	26
  3494  0427  0244               	subwf	??___fladd+2,w
  3495  0428                     u1295:
  3496  0428  1C03               	skipc
  3497  0429  2C2B               	goto	u1291
  3498  042A  2C2C               	goto	u1290
  3499  042B                     u1291:
  3500  042B  2C64               	goto	l1477
  3501  042C                     u1290:
  3502  042C                     l1463:
  3503  042C  0020               	movlb	0	; select bank0
  3504  042D  083D               	movf	___fladd@b+3,w
  3505  042E  043C               	iorwf	___fladd@b+2,w
  3506  042F  043B               	iorwf	___fladd@b+1,w
  3507  0430  043A               	iorwf	___fladd@b,w
  3508  0431  1D03               	skipz
  3509  0432  2C34               	goto	u1301
  3510  0433  2C36               	goto	u1300
  3511  0434                     u1301:
  3512  0434  3001               	movlw	1
  3513  0435  2C37               	goto	u1310
  3514  0436                     u1300:
  3515  0436  3000               	movlw	0
  3516  0437                     u1310:
  3517  0437  00C2               	movwf	??___fladd
  3518  0438  0842               	movf	??___fladd,w
  3519  0439  00CD               	movwf	___fladd@grs
  3520  043A  3000               	movlw	0
  3521  043B  00BD               	movwf	___fladd@b+3
  3522  043C  3000               	movlw	0
  3523  043D  00BC               	movwf	___fladd@b+2
  3524  043E  3000               	movlw	0
  3525  043F  00BB               	movwf	___fladd@b+1
  3526  0440  3000               	movlw	0
  3527  0441  00BA               	movwf	___fladd@b
  3528  0442  084B               	movf	___fladd@aexp,w
  3529  0443  00C2               	movwf	??___fladd
  3530  0444  0842               	movf	??___fladd,w
  3531  0445  00CC               	movwf	___fladd@bexp
  3532  0446  2C6B               	goto	l618
  3533  0447                     l620:
  3534  0447  1C4D               	btfss	___fladd@grs,0
  3535  0448  2C4A               	goto	u1321
  3536  0449  2C4B               	goto	u1320
  3537  044A                     u1321:
  3538  044A  2C51               	goto	l1467
  3539  044B                     u1320:
  3540  044B                     l1465:
  3541  044B  364D               	lsrf	___fladd@grs,w
  3542  044C  3801               	iorlw	1
  3543  044D  00C2               	movwf	??___fladd
  3544  044E  0842               	movf	??___fladd,w
  3545  044F  00CD               	movwf	___fladd@grs
  3546  0450  2C53               	goto	l1469
  3547  0451                     l1467:
  3548  0451  1003               	clrc
  3549  0452  0CCD               	rrf	___fladd@grs,f
  3550  0453                     l1469:
  3551  0453  1C3A               	btfss	___fladd@b,0
  3552  0454  2C56               	goto	u1331
  3553  0455  2C57               	goto	u1330
  3554  0456                     u1331:
  3555  0456  2C58               	goto	l1473
  3556  0457                     u1330:
  3557  0457                     l1471:
  3558  0457  17CD               	bsf	___fladd@grs,7
  3559  0458                     l1473:
  3560  0458  3001               	movlw	1
  3561  0459  00C2               	movwf	??___fladd
  3562  045A                     u1345:
  3563  045A  37BD               	asrf	___fladd@b+3,f
  3564  045B  0CBC               	rrf	___fladd@b+2,f
  3565  045C  0CBB               	rrf	___fladd@b+1,f
  3566  045D  0CBA               	rrf	___fladd@b,f
  3567  045E  0BC2               	decfsz	??___fladd& (0+127),f
  3568  045F  2C5A               	goto	u1345
  3569  0460                     l1475:
  3570  0460  3001               	movlw	1
  3571  0461  00C2               	movwf	??___fladd
  3572  0462  0842               	movf	??___fladd,w
  3573  0463  07CC               	addwf	___fladd@bexp,f
  3574  0464                     l1477:
  3575  0464  0020               	movlb	0	; select bank0
  3576  0465  084B               	movf	___fladd@aexp,w
  3577  0466  024C               	subwf	___fladd@bexp,w
  3578  0467  1C03               	skipc
  3579  0468  2C6A               	goto	u1351
  3580  0469  2C6B               	goto	u1350
  3581  046A                     u1351:
  3582  046A  2C47               	goto	l620
  3583  046B                     u1350:
  3584  046B                     l618:
  3585  046B  1B4A               	btfsc	___fladd@signs,6
  3586  046C  2C6E               	goto	u1361
  3587  046D  2C6F               	goto	u1360
  3588  046E                     u1361:
  3589  046E  2CA7               	goto	l1503
  3590  046F                     u1360:
  3591  046F                     l1479:
  3592  046F  084C               	movf	___fladd@bexp,w
  3593  0470  1D03               	btfss	3,2
  3594  0471  2C73               	goto	u1371
  3595  0472  2C74               	goto	u1370
  3596  0473                     u1371:
  3597  0473  2C7D               	goto	l1485
  3598  0474                     u1370:
  3599  0474                     l1481:
  3600  0474  3000               	movlw	0
  3601  0475  00BD               	movwf	?___fladd+3
  3602  0476  3000               	movlw	0
  3603  0477  00BC               	movwf	?___fladd+2
  3604  0478  3000               	movlw	0
  3605  0479  00BB               	movwf	?___fladd+1
  3606  047A  3000               	movlw	0
  3607  047B  00BA               	movwf	?___fladd
  3608  047C  2DA3               	goto	l627
  3609  047D                     l1485:
  3610  047D  083E               	movf	___fladd@a,w
  3611  047E  07BA               	addwf	___fladd@b,f
  3612  047F  083F               	movf	___fladd@a+1,w
  3613  0480  3DBB               	addwfc	___fladd@b+1,f
  3614  0481  0840               	movf	___fladd@a+2,w
  3615  0482  3DBC               	addwfc	___fladd@b+2,f
  3616  0483  0841               	movf	___fladd@a+3,w
  3617  0484  3DBD               	addwfc	___fladd@b+3,f
  3618  0485                     l1487:
  3619  0485  1C3D               	btfss	___fladd@b+3,0
  3620  0486  2C88               	goto	u1381
  3621  0487  2C89               	goto	u1380
  3622  0488                     u1381:
  3623  0488  2D33               	goto	l1537
  3624  0489                     u1380:
  3625  0489                     l1489:
  3626  0489  1C4D               	btfss	___fladd@grs,0
  3627  048A  2C8C               	goto	u1391
  3628  048B  2C8D               	goto	u1390
  3629  048C                     u1391:
  3630  048C  2C93               	goto	l1493
  3631  048D                     u1390:
  3632  048D                     l1491:
  3633  048D  364D               	lsrf	___fladd@grs,w
  3634  048E  3801               	iorlw	1
  3635  048F  00C2               	movwf	??___fladd
  3636  0490  0842               	movf	??___fladd,w
  3637  0491  00CD               	movwf	___fladd@grs
  3638  0492  2C95               	goto	l1495
  3639  0493                     l1493:
  3640  0493  1003               	clrc
  3641  0494  0CCD               	rrf	___fladd@grs,f
  3642  0495                     l1495:
  3643  0495  1C3A               	btfss	___fladd@b,0
  3644  0496  2C98               	goto	u1401
  3645  0497  2C99               	goto	u1400
  3646  0498                     u1401:
  3647  0498  2C9A               	goto	l1499
  3648  0499                     u1400:
  3649  0499                     l1497:
  3650  0499  17CD               	bsf	___fladd@grs,7
  3651  049A                     l1499:
  3652  049A  3001               	movlw	1
  3653  049B  00C2               	movwf	??___fladd
  3654  049C                     u1415:
  3655  049C  37BD               	asrf	___fladd@b+3,f
  3656  049D  0CBC               	rrf	___fladd@b+2,f
  3657  049E  0CBB               	rrf	___fladd@b+1,f
  3658  049F  0CBA               	rrf	___fladd@b,f
  3659  04A0  0BC2               	decfsz	??___fladd& (0+127),f
  3660  04A1  2C9C               	goto	u1415
  3661  04A2                     l1501:
  3662  04A2  3001               	movlw	1
  3663  04A3  00C2               	movwf	??___fladd
  3664  04A4  0842               	movf	??___fladd,w
  3665  04A5  07CC               	addwf	___fladd@bexp,f
  3666  04A6  2D33               	goto	l1537
  3667  04A7                     l1503:
  3668  04A7  083D               	movf	___fladd@b+3,w
  3669  04A8  3A80               	xorlw	128
  3670  04A9  00C2               	movwf	??___fladd
  3671  04AA  0841               	movf	___fladd@a+3,w
  3672  04AB  3A80               	xorlw	128
  3673  04AC  0242               	subwf	??___fladd,w
  3674  04AD  1D03               	skipz
  3675  04AE  2CB9               	goto	u1423
  3676  04AF  0840               	movf	___fladd@a+2,w
  3677  04B0  023C               	subwf	___fladd@b+2,w
  3678  04B1  1D03               	skipz
  3679  04B2  2CB9               	goto	u1423
  3680  04B3  083F               	movf	___fladd@a+1,w
  3681  04B4  023B               	subwf	___fladd@b+1,w
  3682  04B5  1D03               	skipz
  3683  04B6  2CB9               	goto	u1423
  3684  04B7  083E               	movf	___fladd@a,w
  3685  04B8  023A               	subwf	___fladd@b,w
  3686  04B9                     u1423:
  3687  04B9  1803               	skipnc
  3688  04BA  2CBC               	goto	u1421
  3689  04BB  2CBD               	goto	u1420
  3690  04BC                     u1421:
  3691  04BC  2CF5               	goto	l1513
  3692  04BD                     u1420:
  3693  04BD                     l1505:
  3694  04BD  30FF               	movlw	255
  3695  04BE  00C2               	movwf	??___fladd
  3696  04BF  30FF               	movlw	255
  3697  04C0  00C3               	movwf	??___fladd+1
  3698  04C1  30FF               	movlw	255
  3699  04C2  00C4               	movwf	??___fladd+2
  3700  04C3  30FF               	movlw	255
  3701  04C4  00C5               	movwf	??___fladd+3
  3702  04C5  083A               	movf	___fladd@b,w
  3703  04C6  023E               	subwf	___fladd@a,w
  3704  04C7  00C6               	movwf	??___fladd+4
  3705  04C8  083B               	movf	___fladd@b+1,w
  3706  04C9  3B3F               	subwfb	___fladd@a+1,w
  3707  04CA  00C7               	movwf	??___fladd+5
  3708  04CB  083C               	movf	___fladd@b+2,w
  3709  04CC  3B40               	subwfb	___fladd@a+2,w
  3710  04CD  00C8               	movwf	??___fladd+6
  3711  04CE  083D               	movf	___fladd@b+3,w
  3712  04CF  3B41               	subwfb	___fladd@a+3,w
  3713  04D0  00C9               	movwf	??___fladd+7
  3714  04D1  0846               	movf	??___fladd+4,w
  3715  04D2  07C2               	addwf	??___fladd,f
  3716  04D3  0847               	movf	??___fladd+5,w
  3717  04D4  3DC3               	addwfc	??___fladd+1,f
  3718  04D5  0848               	movf	??___fladd+6,w
  3719  04D6  3DC4               	addwfc	??___fladd+2,f
  3720  04D7  0849               	movf	??___fladd+7,w
  3721  04D8  3DC5               	addwfc	??___fladd+3,f
  3722  04D9  0845               	movf	??___fladd+3,w
  3723  04DA  00BD               	movwf	___fladd@b+3
  3724  04DB  0844               	movf	??___fladd+2,w
  3725  04DC  00BC               	movwf	___fladd@b+2
  3726  04DD  0843               	movf	??___fladd+1,w
  3727  04DE  00BB               	movwf	___fladd@b+1
  3728  04DF  0842               	movf	??___fladd,w
  3729  04E0  00BA               	movwf	___fladd@b
  3730  04E1                     l1507:
  3731  04E1  3080               	movlw	128
  3732  04E2  00C2               	movwf	??___fladd
  3733  04E3  0842               	movf	??___fladd,w
  3734  04E4  06CA               	xorwf	___fladd@signs,f
  3735  04E5  09CD               	comf	___fladd@grs,f
  3736  04E6  0ACD               	incf	___fladd@grs,f
  3737  04E7                     l1509:
  3738  04E7  084D               	movf	___fladd@grs,w
  3739  04E8  1D03               	btfss	3,2
  3740  04E9  2CEB               	goto	u1431
  3741  04EA  2CEC               	goto	u1430
  3742  04EB                     u1431:
  3743  04EB  2CFD               	goto	l635
  3744  04EC                     u1430:
  3745  04EC                     l1511:
  3746  04EC  3001               	movlw	1
  3747  04ED  07BA               	addwf	___fladd@b,f
  3748  04EE  3000               	movlw	0
  3749  04EF  3DBB               	addwfc	___fladd@b+1,f
  3750  04F0  3000               	movlw	0
  3751  04F1  3DBC               	addwfc	___fladd@b+2,f
  3752  04F2  3000               	movlw	0
  3753  04F3  3DBD               	addwfc	___fladd@b+3,f
  3754  04F4  2CFD               	goto	l635
  3755  04F5                     l1513:
  3756  04F5  083E               	movf	___fladd@a,w
  3757  04F6  02BA               	subwf	___fladd@b,f
  3758  04F7  083F               	movf	___fladd@a+1,w
  3759  04F8  3BBB               	subwfb	___fladd@b+1,f
  3760  04F9  0840               	movf	___fladd@a+2,w
  3761  04FA  3BBC               	subwfb	___fladd@b+2,f
  3762  04FB  0841               	movf	___fladd@a+3,w
  3763  04FC  3BBD               	subwfb	___fladd@b+3,f
  3764  04FD                     l635:
  3765  04FD  083D               	movf	___fladd@b+3,w
  3766  04FE  043C               	iorwf	___fladd@b+2,w
  3767  04FF  043B               	iorwf	___fladd@b+1,w
  3768  0500  043A               	iorwf	___fladd@b,w
  3769  0501  1D03               	skipz
  3770  0502  2D04               	goto	u1441
  3771  0503  2D05               	goto	u1440
  3772  0504                     u1441:
  3773  0504  2D2F               	goto	l1535
  3774  0505                     u1440:
  3775  0505                     l1515:
  3776  0505  084D               	movf	___fladd@grs,w
  3777  0506  1D03               	btfss	3,2
  3778  0507  2D09               	goto	u1451
  3779  0508  2D0A               	goto	u1450
  3780  0509                     u1451:
  3781  0509  2D2F               	goto	l1535
  3782  050A                     u1450:
  3783  050A                     l1517:
  3784  050A  3000               	movlw	0
  3785  050B  00BD               	movwf	?___fladd+3
  3786  050C  3000               	movlw	0
  3787  050D  00BC               	movwf	?___fladd+2
  3788  050E  3000               	movlw	0
  3789  050F  00BB               	movwf	?___fladd+1
  3790  0510  3000               	movlw	0
  3791  0511  00BA               	movwf	?___fladd
  3792  0512  2DA3               	goto	l627
  3793  0513                     l1521:
  3794  0513  3001               	movlw	1
  3795  0514                     u1465:
  3796  0514  35BA               	lslf	___fladd@b,f
  3797  0515  0DBB               	rlf	___fladd@b+1,f
  3798  0516  0DBC               	rlf	___fladd@b+2,f
  3799  0517  0DBD               	rlf	___fladd@b+3,f
  3800  0518  0B89               	decfsz	9,f
  3801  0519  2D14               	goto	u1465
  3802  051A                     l1523:
  3803  051A  1FCD               	btfss	___fladd@grs,7
  3804  051B  2D1D               	goto	u1471
  3805  051C  2D1E               	goto	u1470
  3806  051D                     u1471:
  3807  051D  2D1F               	goto	l639
  3808  051E                     u1470:
  3809  051E                     l1525:
  3810  051E  143A               	bsf	___fladd@b,0
  3811  051F                     l639:
  3812  051F  1C4D               	btfss	___fladd@grs,0
  3813  0520  2D22               	goto	u1481
  3814  0521  2D23               	goto	u1480
  3815  0522                     u1481:
  3816  0522  2D26               	goto	l1529
  3817  0523                     u1480:
  3818  0523                     l1527:
  3819  0523  1403               	setc
  3820  0524  0DCD               	rlf	___fladd@grs,f
  3821  0525  2D28               	goto	l1531
  3822  0526                     l1529:
  3823  0526  1003               	clrc
  3824  0527  0DCD               	rlf	___fladd@grs,f
  3825  0528                     l1531:
  3826  0528  084C               	movf	___fladd@bexp,w
  3827  0529  1903               	btfsc	3,2
  3828  052A  2D2C               	goto	u1491
  3829  052B  2D2D               	goto	u1490
  3830  052C                     u1491:
  3831  052C  2D2F               	goto	l1535
  3832  052D                     u1490:
  3833  052D                     l1533:
  3834  052D  3001               	movlw	1
  3835  052E  02CC               	subwf	___fladd@bexp,f
  3836  052F                     l1535:
  3837  052F  1FBC               	btfss	___fladd@b+2,7
  3838  0530  2D32               	goto	u1501
  3839  0531  2D33               	goto	u1500
  3840  0532                     u1501:
  3841  0532  2D13               	goto	l1521
  3842  0533                     u1500:
  3843  0533                     l1537:
  3844  0533  01CB               	clrf	___fladd@aexp
  3845  0534                     l1539:
  3846  0534  1FCD               	btfss	___fladd@grs,7
  3847  0535  2D37               	goto	u1511
  3848  0536  2D38               	goto	u1510
  3849  0537                     u1511:
  3850  0537  2D46               	goto	l1547
  3851  0538                     u1510:
  3852  0538                     l1541:
  3853  0538  084D               	movf	___fladd@grs,w
  3854  0539  397F               	andlw	127
  3855  053A  1903               	btfsc	3,2
  3856  053B  2D3D               	goto	u1521
  3857  053C  2D3E               	goto	u1520
  3858  053D                     u1521:
  3859  053D  2D41               	goto	l645
  3860  053E                     u1520:
  3861  053E                     l1543:
  3862  053E  01CB               	clrf	___fladd@aexp
  3863  053F  0ACB               	incf	___fladd@aexp,f
  3864  0540  2D46               	goto	l1547
  3865  0541                     l645:
  3866  0541  1C3A               	btfss	___fladd@b,0
  3867  0542  2D44               	goto	u1531
  3868  0543  2D45               	goto	u1530
  3869  0544                     u1531:
  3870  0544  2D46               	goto	l1547
  3871  0545                     u1530:
  3872  0545  2D3E               	goto	l1543
  3873  0546                     l1547:
  3874  0546  084B               	movf	___fladd@aexp,w
  3875  0547  1903               	btfsc	3,2
  3876  0548  2D4A               	goto	u1541
  3877  0549  2D4B               	goto	u1540
  3878  054A                     u1541:
  3879  054A  2D78               	goto	l648
  3880  054B                     u1540:
  3881  054B                     l1549:
  3882  054B  3001               	movlw	1
  3883  054C  07BA               	addwf	___fladd@b,f
  3884  054D  3000               	movlw	0
  3885  054E  3DBB               	addwfc	___fladd@b+1,f
  3886  054F  3000               	movlw	0
  3887  0550  3DBC               	addwfc	___fladd@b+2,f
  3888  0551  3000               	movlw	0
  3889  0552  3DBD               	addwfc	___fladd@b+3,f
  3890  0553                     l1551:
  3891  0553  1C3D               	btfss	___fladd@b+3,0
  3892  0554  2D56               	goto	u1551
  3893  0555  2D57               	goto	u1550
  3894  0556                     u1551:
  3895  0556  2D78               	goto	l648
  3896  0557                     u1550:
  3897  0557                     l1553:
  3898  0557  083A               	movf	___fladd@b,w
  3899  0558  00C2               	movwf	??___fladd
  3900  0559  083B               	movf	___fladd@b+1,w
  3901  055A  00C3               	movwf	??___fladd+1
  3902  055B  083C               	movf	___fladd@b+2,w
  3903  055C  00C4               	movwf	??___fladd+2
  3904  055D  083D               	movf	___fladd@b+3,w
  3905  055E  00C5               	movwf	??___fladd+3
  3906  055F  3001               	movlw	1
  3907  0560  00C6               	movwf	??___fladd+4
  3908  0561                     u1565:
  3909  0561  37C5               	asrf	??___fladd+3,f
  3910  0562  0CC4               	rrf	??___fladd+2,f
  3911  0563  0CC3               	rrf	??___fladd+1,f
  3912  0564  0CC2               	rrf	??___fladd,f
  3913  0565                     u1560:
  3914  0565  0BC6               	decfsz	??___fladd+4,f
  3915  0566  2D61               	goto	u1565
  3916  0567  0845               	movf	??___fladd+3,w
  3917  0568  00BD               	movwf	___fladd@b+3
  3918  0569  0844               	movf	??___fladd+2,w
  3919  056A  00BC               	movwf	___fladd@b+2
  3920  056B  0843               	movf	??___fladd+1,w
  3921  056C  00BB               	movwf	___fladd@b+1
  3922  056D  0842               	movf	??___fladd,w
  3923  056E  00BA               	movwf	___fladd@b
  3924  056F  0A4C               	incf	___fladd@bexp,w
  3925  0570  1903               	btfsc	3,2
  3926  0571  2D73               	goto	u1571
  3927  0572  2D74               	goto	u1570
  3928  0573                     u1571:
  3929  0573  2D78               	goto	l648
  3930  0574                     u1570:
  3931  0574                     l1555:
  3932  0574  3001               	movlw	1
  3933  0575  00C2               	movwf	??___fladd
  3934  0576  0842               	movf	??___fladd,w
  3935  0577  07CC               	addwf	___fladd@bexp,f
  3936  0578                     l648:
  3937  0578  0A4C               	incf	___fladd@bexp,w
  3938  0579  1903               	btfsc	3,2
  3939  057A  2D7C               	goto	u1581
  3940  057B  2D7D               	goto	u1580
  3941  057C                     u1581:
  3942  057C  2D82               	goto	l1559
  3943  057D                     u1580:
  3944  057D                     l1557:
  3945  057D  084C               	movf	___fladd@bexp,w
  3946  057E  1D03               	btfss	3,2
  3947  057F  2D81               	goto	u1591
  3948  0580  2D82               	goto	u1590
  3949  0581                     u1591:
  3950  0581  2D90               	goto	l1565
  3951  0582                     u1590:
  3952  0582                     l1559:
  3953  0582  3000               	movlw	0
  3954  0583  00BD               	movwf	___fladd@b+3
  3955  0584  3000               	movlw	0
  3956  0585  00BC               	movwf	___fladd@b+2
  3957  0586  3000               	movlw	0
  3958  0587  00BB               	movwf	___fladd@b+1
  3959  0588  3000               	movlw	0
  3960  0589  00BA               	movwf	___fladd@b
  3961  058A                     l1561:
  3962  058A  084C               	movf	___fladd@bexp,w
  3963  058B  1D03               	btfss	3,2
  3964  058C  2D8E               	goto	u1601
  3965  058D  2D8F               	goto	u1600
  3966  058E                     u1601:
  3967  058E  2D90               	goto	l1565
  3968  058F                     u1600:
  3969  058F                     l1563:
  3970  058F  01CA               	clrf	___fladd@signs
  3971  0590                     l1565:
  3972  0590  1C4C               	btfss	___fladd@bexp,0
  3973  0591  2D93               	goto	u1611
  3974  0592  2D94               	goto	u1610
  3975  0593                     u1611:
  3976  0593  2D96               	goto	l1569
  3977  0594                     u1610:
  3978  0594                     l1567:
  3979  0594  17BC               	bsf	___fladd@b+2,7
  3980  0595  2D9A               	goto	l656
  3981  0596                     l1569:
  3982  0596  307F               	movlw	127
  3983  0597  00C2               	movwf	??___fladd
  3984  0598  0842               	movf	??___fladd,w
  3985  0599  05BC               	andwf	___fladd@b+2,f
  3986  059A                     l656:
  3987  059A  364C               	lsrf	___fladd@bexp,w
  3988  059B  00C2               	movwf	??___fladd
  3989  059C  0842               	movf	??___fladd,w
  3990  059D  00BD               	movwf	___fladd@b+3
  3991  059E                     l1571:
  3992  059E  1FCA               	btfss	___fladd@signs,7
  3993  059F  2DA1               	goto	u1621
  3994  05A0  2DA2               	goto	u1620
  3995  05A1                     u1621:
  3996  05A1  2DA3               	goto	l657
  3997  05A2                     u1620:
  3998  05A2                     l1573:
  3999  05A2  17BD               	bsf	___fladd@b+3,7
  4000  05A3                     l657:
  4001  05A3                     l627:
  4002  05A3  0008               	return
  4003  05A4                     __end_of___fladd:
  4004                           
  4005                           	psect	text8
  4006  00E8                     __ptext8:	
  4007 ;; *************** function _SYSTEM_Initialize *****************
  4008 ;; Defined at:
  4009 ;;		line 50 in file "mcc_generated_files/mcc.c"
  4010 ;; Parameters:    Size  Location     Type
  4011 ;;		None
  4012 ;; Auto vars:     Size  Location     Type
  4013 ;;		None
  4014 ;; Return value:  Size  Location     Type
  4015 ;;                  1    wreg      void 
  4016 ;; Registers used:
  4017 ;;		wreg, status,2, status,0, pclath, cstack
  4018 ;; Tracked objects:
  4019 ;;		On entry : 0/0
  4020 ;;		On exit  : 0/0
  4021 ;;		Unchanged: 0/0
  4022 ;; Data sizes:     COMMON   BANK0   BANK1   BANK2
  4023 ;;      Params:         0       0       0       0
  4024 ;;      Locals:         0       0       0       0
  4025 ;;      Temps:          0       0       0       0
  4026 ;;      Totals:         0       0       0       0
  4027 ;;Total ram usage:        0 bytes
  4028 ;; Hardware stack levels used: 1
  4029 ;; Hardware stack levels required when called: 1
  4030 ;; This function calls:
  4031 ;;		_ADC_Initialize
  4032 ;;		_OSCILLATOR_Initialize
  4033 ;;		_PIN_MANAGER_Initialize
  4034 ;;		_PMD_Initialize
  4035 ;;		_WDT_Initialize
  4036 ;; This function is called by:
  4037 ;;		_main
  4038 ;; This function uses a non-reentrant model
  4039 ;;
  4040                           
  4041  00E8                     _SYSTEM_Initialize:	
  4042                           ;psect for function _SYSTEM_Initialize
  4043                           
  4044  00E8                     l1281:	
  4045                           ;incstack = 0
  4046                           ; Regs used in _SYSTEM_Initialize: [wreg+status,2+status,0+pclath+cstack]
  4047                           
  4048                           
  4049                           ;mcc_generated_files/mcc.c: 53:     PMD_Initialize();
  4050  00E8  3180  20CE  3180   	fcall	_PMD_Initialize
  4051  00EB                     l1283:
  4052                           
  4053                           ;mcc_generated_files/mcc.c: 54:     PIN_MANAGER_Initialize();
  4054  00EB  3181  213C  3180   	fcall	_PIN_MANAGER_Initialize
  4055  00EE                     l1285:
  4056                           
  4057                           ;mcc_generated_files/mcc.c: 55:     OSCILLATOR_Initialize();
  4058  00EE  3180  20DF  3180   	fcall	_OSCILLATOR_Initialize
  4059  00F1                     l1287:
  4060                           
  4061                           ;mcc_generated_files/mcc.c: 56:     WDT_Initialize();
  4062  00F1  3180  20CA  3180   	fcall	_WDT_Initialize
  4063  00F4                     l1289:
  4064                           
  4065                           ;mcc_generated_files/mcc.c: 57:     ADC_Initialize();
  4066  00F4  3180  20D6  3180   	fcall	_ADC_Initialize
  4067  00F7                     l111:
  4068  00F7  0008               	return
  4069  00F8                     __end_of_SYSTEM_Initialize:
  4070                           
  4071                           	psect	text9
  4072  00CA                     __ptext9:	
  4073 ;; *************** function _WDT_Initialize *****************
  4074 ;; Defined at:
  4075 ;;		line 74 in file "mcc_generated_files/mcc.c"
  4076 ;; Parameters:    Size  Location     Type
  4077 ;;		None
  4078 ;; Auto vars:     Size  Location     Type
  4079 ;;		None
  4080 ;; Return value:  Size  Location     Type
  4081 ;;                  1    wreg      void 
  4082 ;; Registers used:
  4083 ;;		wreg
  4084 ;; Tracked objects:
  4085 ;;		On entry : 0/0
  4086 ;;		On exit  : 0/0
  4087 ;;		Unchanged: 0/0
  4088 ;; Data sizes:     COMMON   BANK0   BANK1   BANK2
  4089 ;;      Params:         0       0       0       0
  4090 ;;      Locals:         0       0       0       0
  4091 ;;      Temps:          0       0       0       0
  4092 ;;      Totals:         0       0       0       0
  4093 ;;Total ram usage:        0 bytes
  4094 ;; Hardware stack levels used: 1
  4095 ;; This function calls:
  4096 ;;		Nothing
  4097 ;; This function is called by:
  4098 ;;		_SYSTEM_Initialize
  4099 ;; This function uses a non-reentrant model
  4100 ;;
  4101                           
  4102  00CA                     _WDT_Initialize:	
  4103                           ;psect for function _WDT_Initialize
  4104                           
  4105  00CA                     l1249:	
  4106                           ;incstack = 0
  4107                           ; Regs used in _WDT_Initialize: [wreg]
  4108                           
  4109                           
  4110                           ;mcc_generated_files/mcc.c: 77:     WDTCON = 0x16;
  4111  00CA  3016               	movlw	22
  4112  00CB  0021               	movlb	1	; select bank1
  4113  00CC  0097               	movwf	23	;volatile
  4114  00CD                     l117:
  4115  00CD  0008               	return
  4116  00CE                     __end_of_WDT_Initialize:
  4117                           
  4118                           	psect	text10
  4119  00CE                     __ptext10:	
  4120 ;; *************** function _PMD_Initialize *****************
  4121 ;; Defined at:
  4122 ;;		line 80 in file "mcc_generated_files/mcc.c"
  4123 ;; Parameters:    Size  Location     Type
  4124 ;;		None
  4125 ;; Auto vars:     Size  Location     Type
  4126 ;;		None
  4127 ;; Return value:  Size  Location     Type
  4128 ;;                  1    wreg      void 
  4129 ;; Registers used:
  4130 ;;		status,2
  4131 ;; Tracked objects:
  4132 ;;		On entry : 0/0
  4133 ;;		On exit  : 0/0
  4134 ;;		Unchanged: 0/0
  4135 ;; Data sizes:     COMMON   BANK0   BANK1   BANK2
  4136 ;;      Params:         0       0       0       0
  4137 ;;      Locals:         0       0       0       0
  4138 ;;      Temps:          0       0       0       0
  4139 ;;      Totals:         0       0       0       0
  4140 ;;Total ram usage:        0 bytes
  4141 ;; Hardware stack levels used: 1
  4142 ;; This function calls:
  4143 ;;		Nothing
  4144 ;; This function is called by:
  4145 ;;		_SYSTEM_Initialize
  4146 ;; This function uses a non-reentrant model
  4147 ;;
  4148                           
  4149  00CE                     _PMD_Initialize:	
  4150                           ;psect for function _PMD_Initialize
  4151                           
  4152  00CE                     l1239:	
  4153                           ;incstack = 0
  4154                           ; Regs used in _PMD_Initialize: [status,2]
  4155                           
  4156                           
  4157                           ;mcc_generated_files/mcc.c: 83:     PMD0 = 0x00;
  4158  00CE  0032               	movlb	18	; select bank18
  4159  00CF  0191               	clrf	17	;volatile
  4160                           
  4161                           ;mcc_generated_files/mcc.c: 85:     PMD1 = 0x00;
  4162  00D0  0192               	clrf	18	;volatile
  4163                           
  4164                           ;mcc_generated_files/mcc.c: 87:     PMD2 = 0x00;
  4165  00D1  0193               	clrf	19	;volatile
  4166                           
  4167                           ;mcc_generated_files/mcc.c: 89:     PMD3 = 0x00;
  4168  00D2  0194               	clrf	20	;volatile
  4169                           
  4170                           ;mcc_generated_files/mcc.c: 91:     PMD4 = 0x00;
  4171  00D3  0195               	clrf	21	;volatile
  4172                           
  4173                           ;mcc_generated_files/mcc.c: 93:     PMD5 = 0x00;
  4174  00D4  0196               	clrf	22	;volatile
  4175  00D5                     l120:
  4176  00D5  0008               	return
  4177  00D6                     __end_of_PMD_Initialize:
  4178                           
  4179                           	psect	text11
  4180  013C                     __ptext11:	
  4181 ;; *************** function _PIN_MANAGER_Initialize *****************
  4182 ;; Defined at:
  4183 ;;		line 55 in file "mcc_generated_files/pin_manager.c"
  4184 ;; Parameters:    Size  Location     Type
  4185 ;;		None
  4186 ;; Auto vars:     Size  Location     Type
  4187 ;;		None
  4188 ;; Return value:  Size  Location     Type
  4189 ;;                  1    wreg      void 
  4190 ;; Registers used:
  4191 ;;		wreg, status,2
  4192 ;; Tracked objects:
  4193 ;;		On entry : 0/0
  4194 ;;		On exit  : 0/0
  4195 ;;		Unchanged: 0/0
  4196 ;; Data sizes:     COMMON   BANK0   BANK1   BANK2
  4197 ;;      Params:         0       0       0       0
  4198 ;;      Locals:         0       0       0       0
  4199 ;;      Temps:          0       0       0       0
  4200 ;;      Totals:         0       0       0       0
  4201 ;;Total ram usage:        0 bytes
  4202 ;; Hardware stack levels used: 1
  4203 ;; This function calls:
  4204 ;;		Nothing
  4205 ;; This function is called by:
  4206 ;;		_SYSTEM_Initialize
  4207 ;; This function uses a non-reentrant model
  4208 ;;
  4209                           
  4210  013C                     _PIN_MANAGER_Initialize:	
  4211                           ;psect for function _PIN_MANAGER_Initialize
  4212                           
  4213  013C                     l1199:	
  4214                           ;incstack = 0
  4215                           ; Regs used in _PIN_MANAGER_Initialize: [wreg+status,2]
  4216                           
  4217                           
  4218                           ;mcc_generated_files/pin_manager.c: 60:     LATA = 0x00;
  4219  013C  0022               	movlb	2	; select bank2
  4220  013D  018C               	clrf	12	;volatile
  4221                           
  4222                           ;mcc_generated_files/pin_manager.c: 61:     LATC = 0x00;
  4223  013E  018E               	clrf	14	;volatile
  4224  013F                     l1201:
  4225                           
  4226                           ;mcc_generated_files/pin_manager.c: 66:     TRISA = 0x17;
  4227  013F  3017               	movlw	23
  4228  0140  0021               	movlb	1	; select bank1
  4229  0141  008C               	movwf	12	;volatile
  4230  0142                     l1203:
  4231                           
  4232                           ;mcc_generated_files/pin_manager.c: 67:     TRISC = 0x1F;
  4233  0142  301F               	movlw	31
  4234  0143  008E               	movwf	14	;volatile
  4235  0144                     l1205:
  4236                           
  4237                           ;mcc_generated_files/pin_manager.c: 72:     ANSELC = 0x0F;
  4238  0144  300F               	movlw	15
  4239  0145  0023               	movlb	3	; select bank3
  4240  0146  008E               	movwf	14	;volatile
  4241  0147                     l1207:
  4242                           
  4243                           ;mcc_generated_files/pin_manager.c: 73:     ANSELA = 0x17;
  4244  0147  3017               	movlw	23
  4245  0148  008C               	movwf	12	;volatile
  4246                           
  4247                           ;mcc_generated_files/pin_manager.c: 78:     WPUA = 0x00;
  4248  0149  0024               	movlb	4	; select bank4
  4249  014A  018C               	clrf	12	;volatile
  4250                           
  4251                           ;mcc_generated_files/pin_manager.c: 79:     WPUC = 0x00;
  4252  014B  018E               	clrf	14	;volatile
  4253                           
  4254                           ;mcc_generated_files/pin_manager.c: 84:     ODCONA = 0x00;
  4255  014C  0025               	movlb	5	; select bank5
  4256  014D  018C               	clrf	12	;volatile
  4257                           
  4258                           ;mcc_generated_files/pin_manager.c: 85:     ODCONC = 0x00;
  4259  014E  018E               	clrf	14	;volatile
  4260  014F                     l1209:
  4261                           
  4262                           ;mcc_generated_files/pin_manager.c: 90:     SLRCONA = 0x37;
  4263  014F  3037               	movlw	55
  4264  0150  0026               	movlb	6	; select bank6
  4265  0151  008C               	movwf	12	;volatile
  4266  0152                     l1211:
  4267                           
  4268                           ;mcc_generated_files/pin_manager.c: 91:     SLRCONC = 0x3F;
  4269  0152  303F               	movlw	63
  4270  0153  008E               	movwf	14	;volatile
  4271  0154                     l1213:
  4272                           
  4273                           ;mcc_generated_files/pin_manager.c: 96:     INLVLA = 0x3F;
  4274  0154  303F               	movlw	63
  4275  0155  0027               	movlb	7	; select bank7
  4276  0156  008C               	movwf	12	;volatile
  4277  0157                     l1215:
  4278                           
  4279                           ;mcc_generated_files/pin_manager.c: 97:     INLVLC = 0x3F;
  4280  0157  303F               	movlw	63
  4281  0158  008E               	movwf	14	;volatile
  4282  0159                     l31:
  4283  0159  0008               	return
  4284  015A                     __end_of_PIN_MANAGER_Initialize:
  4285                           
  4286                           	psect	text12
  4287  00DF                     __ptext12:	
  4288 ;; *************** function _OSCILLATOR_Initialize *****************
  4289 ;; Defined at:
  4290 ;;		line 60 in file "mcc_generated_files/mcc.c"
  4291 ;; Parameters:    Size  Location     Type
  4292 ;;		None
  4293 ;; Auto vars:     Size  Location     Type
  4294 ;;		None
  4295 ;; Return value:  Size  Location     Type
  4296 ;;                  1    wreg      void 
  4297 ;; Registers used:
  4298 ;;		wreg, status,2
  4299 ;; Tracked objects:
  4300 ;;		On entry : 0/0
  4301 ;;		On exit  : 0/0
  4302 ;;		Unchanged: 0/0
  4303 ;; Data sizes:     COMMON   BANK0   BANK1   BANK2
  4304 ;;      Params:         0       0       0       0
  4305 ;;      Locals:         0       0       0       0
  4306 ;;      Temps:          0       0       0       0
  4307 ;;      Totals:         0       0       0       0
  4308 ;;Total ram usage:        0 bytes
  4309 ;; Hardware stack levels used: 1
  4310 ;; This function calls:
  4311 ;;		Nothing
  4312 ;; This function is called by:
  4313 ;;		_SYSTEM_Initialize
  4314 ;; This function uses a non-reentrant model
  4315 ;;
  4316                           
  4317  00DF                     _OSCILLATOR_Initialize:	
  4318                           ;psect for function _OSCILLATOR_Initialize
  4319                           
  4320  00DF                     l1241:	
  4321                           ;incstack = 0
  4322                           ; Regs used in _OSCILLATOR_Initialize: [wreg+status,2]
  4323                           
  4324                           
  4325                           ;mcc_generated_files/mcc.c: 63:     OSCCON1 = 0x62;
  4326  00DF  3062               	movlw	98
  4327  00E0  0032               	movlb	18	; select bank18
  4328  00E1  0099               	movwf	25	;volatile
  4329  00E2                     l1243:
  4330                           
  4331                           ;mcc_generated_files/mcc.c: 65:     OSCCON3 = 0x00;
  4332  00E2  019B               	clrf	27	;volatile
  4333  00E3                     l1245:
  4334                           
  4335                           ;mcc_generated_files/mcc.c: 67:     OSCEN = 0x00;
  4336  00E3  019D               	clrf	29	;volatile
  4337                           
  4338                           ;mcc_generated_files/mcc.c: 69:     OSCFRQ = 0x03;
  4339  00E4  3003               	movlw	3
  4340  00E5  009F               	movwf	31	;volatile
  4341  00E6                     l1247:
  4342                           
  4343                           ;mcc_generated_files/mcc.c: 71:     OSCTUNE = 0x00;
  4344  00E6  019E               	clrf	30	;volatile
  4345  00E7                     l114:
  4346  00E7  0008               	return
  4347  00E8                     __end_of_OSCILLATOR_Initialize:
  4348                           
  4349                           	psect	text13
  4350  00D6                     __ptext13:	
  4351 ;; *************** function _ADC_Initialize *****************
  4352 ;; Defined at:
  4353 ;;		line 67 in file "mcc_generated_files/adc.c"
  4354 ;; Parameters:    Size  Location     Type
  4355 ;;		None
  4356 ;; Auto vars:     Size  Location     Type
  4357 ;;		None
  4358 ;; Return value:  Size  Location     Type
  4359 ;;                  1    wreg      void 
  4360 ;; Registers used:
  4361 ;;		wreg, status,2
  4362 ;; Tracked objects:
  4363 ;;		On entry : 0/0
  4364 ;;		On exit  : 0/0
  4365 ;;		Unchanged: 0/0
  4366 ;; Data sizes:     COMMON   BANK0   BANK1   BANK2
  4367 ;;      Params:         0       0       0       0
  4368 ;;      Locals:         0       0       0       0
  4369 ;;      Temps:          0       0       0       0
  4370 ;;      Totals:         0       0       0       0
  4371 ;;Total ram usage:        0 bytes
  4372 ;; Hardware stack levels used: 1
  4373 ;; This function calls:
  4374 ;;		Nothing
  4375 ;; This function is called by:
  4376 ;;		_SYSTEM_Initialize
  4377 ;;		_main
  4378 ;; This function uses a non-reentrant model
  4379 ;;
  4380                           
  4381  00D6                     _ADC_Initialize:	
  4382                           ;psect for function _ADC_Initialize
  4383                           
  4384  00D6                     l1217:	
  4385                           ;incstack = 0
  4386                           ; Regs used in _ADC_Initialize: [wreg+status,2]
  4387                           
  4388                           
  4389                           ;mcc_generated_files/adc.c: 72:     ADCON1 = 0x80;
  4390  00D6  3080               	movlw	128
  4391  00D7  0021               	movlb	1	; select bank1
  4392  00D8  009E               	movwf	30	;volatile
  4393  00D9                     l1219:
  4394                           
  4395                           ;mcc_generated_files/adc.c: 75:     ADACT = 0x00;
  4396  00D9  019F               	clrf	31	;volatile
  4397  00DA                     l1221:
  4398                           
  4399                           ;mcc_generated_files/adc.c: 78:     ADRESL = 0x00;
  4400  00DA  019B               	clrf	27	;volatile
  4401  00DB                     l1223:
  4402                           
  4403                           ;mcc_generated_files/adc.c: 81:     ADRESH = 0x00;
  4404  00DB  019C               	clrf	28	;volatile
  4405  00DC                     l1225:
  4406                           
  4407                           ;mcc_generated_files/adc.c: 84:     ADCON0 = 0x01;
  4408  00DC  3001               	movlw	1
  4409  00DD  009D               	movwf	29	;volatile
  4410  00DE                     l53:
  4411  00DE  0008               	return
  4412  00DF                     __end_of_ADC_Initialize:
  4413                           
  4414                           	psect	text14
  4415  01FB                     __ptext14:	
  4416 ;; *************** function _Configure_Device_Id *****************
  4417 ;; Defined at:
  4418 ;;		line 92 in file "main.c"
  4419 ;; Parameters:    Size  Location     Type
  4420 ;;		None
  4421 ;; Auto vars:     Size  Location     Type
  4422 ;;  C2              1    5[BANK0 ] unsigned char 
  4423 ;;  C1              1    4[BANK0 ] unsigned char 
  4424 ;;  C0              1    3[BANK0 ] unsigned char 
  4425 ;; Return value:  Size  Location     Type
  4426 ;;                  1    wreg      void 
  4427 ;; Registers used:
  4428 ;;		wreg, status,2, status,0, pclath, cstack
  4429 ;; Tracked objects:
  4430 ;;		On entry : 0/0
  4431 ;;		On exit  : 0/0
  4432 ;;		Unchanged: 0/0
  4433 ;; Data sizes:     COMMON   BANK0   BANK1   BANK2
  4434 ;;      Params:         0       0       0       0
  4435 ;;      Locals:         0       3       0       0
  4436 ;;      Temps:          0       3       0       0
  4437 ;;      Totals:         0       6       0       0
  4438 ;;Total ram usage:        6 bytes
  4439 ;; Hardware stack levels used: 1
  4440 ;; Hardware stack levels required when called: 1
  4441 ;; This function calls:
  4442 ;;		_ADC_GetConversion
  4443 ;;		___lwdiv
  4444 ;; This function is called by:
  4445 ;;		_main
  4446 ;; This function uses a non-reentrant model
  4447 ;;
  4448                           
  4449  01FB                     _Configure_Device_Id:	
  4450                           ;psect for function _Configure_Device_Id
  4451                           
  4452  01FB                     l1801:	
  4453                           ;incstack = 0
  4454                           ; Regs used in _Configure_Device_Id: [wreg+status,2+status,0+pclath+cstack]
  4455                           
  4456                           
  4457                           ;main.c: 94:     char C0 = ADC_GetConversion(ID_2)/200;
  4458  01FB  30C8               	movlw	200
  4459  01FC  00F4               	movwf	___lwdiv@divisor
  4460  01FD  3000               	movlw	0
  4461  01FE  00F5               	movwf	___lwdiv@divisor+1
  4462  01FF  3010               	movlw	16
  4463  0200  3181  2109  3181   	fcall	_ADC_GetConversion
  4464  0203  0871               	movf	?_ADC_GetConversion+1,w
  4465  0204  00F7               	movwf	___lwdiv@dividend+1
  4466  0205  0870               	movf	?_ADC_GetConversion,w
  4467  0206  00F6               	movwf	___lwdiv@dividend
  4468  0207  3181  217D  3181   	fcall	___lwdiv
  4469  020A  0874               	movf	?___lwdiv,w
  4470  020B  0020               	movlb	0	; select bank0
  4471  020C  00A0               	movwf	??_Configure_Device_Id
  4472  020D  0820               	movf	??_Configure_Device_Id,w
  4473  020E  00A3               	movwf	Configure_Device_Id@C0
  4474                           
  4475                           ;main.c: 95:     char C1 = ADC_GetConversion(ID_3)/200;
  4476  020F  30C8               	movlw	200
  4477  0210  00F4               	movwf	___lwdiv@divisor
  4478  0211  3000               	movlw	0
  4479  0212  00F5               	movwf	___lwdiv@divisor+1
  4480  0213  3011               	movlw	17
  4481  0214  3181  2109  3181   	fcall	_ADC_GetConversion
  4482  0217  0871               	movf	?_ADC_GetConversion+1,w
  4483  0218  00F7               	movwf	___lwdiv@dividend+1
  4484  0219  0870               	movf	?_ADC_GetConversion,w
  4485  021A  00F6               	movwf	___lwdiv@dividend
  4486  021B  3181  217D  3181   	fcall	___lwdiv
  4487  021E  0874               	movf	?___lwdiv,w
  4488  021F  0020               	movlb	0	; select bank0
  4489  0220  00A0               	movwf	??_Configure_Device_Id
  4490  0221  0820               	movf	??_Configure_Device_Id,w
  4491  0222  00A4               	movwf	Configure_Device_Id@C1
  4492                           
  4493                           ;main.c: 96:     char C2 = ADC_GetConversion(ID_4)/200;
  4494  0223  30C8               	movlw	200
  4495  0224  00F4               	movwf	___lwdiv@divisor
  4496  0225  3000               	movlw	0
  4497  0226  00F5               	movwf	___lwdiv@divisor+1
  4498  0227  3012               	movlw	18
  4499  0228  3181  2109  3181   	fcall	_ADC_GetConversion
  4500  022B  0871               	movf	?_ADC_GetConversion+1,w
  4501  022C  00F7               	movwf	___lwdiv@dividend+1
  4502  022D  0870               	movf	?_ADC_GetConversion,w
  4503  022E  00F6               	movwf	___lwdiv@dividend
  4504  022F  3181  217D  3181   	fcall	___lwdiv
  4505  0232  0874               	movf	?___lwdiv,w
  4506  0233  0020               	movlb	0	; select bank0
  4507  0234  00A0               	movwf	??_Configure_Device_Id
  4508  0235  0820               	movf	??_Configure_Device_Id,w
  4509  0236  00A5               	movwf	Configure_Device_Id@C2
  4510  0237                     l1803:
  4511                           
  4512                           ;main.c: 98:     device_ID = ( C0<<6 | C1<<3 | C2);
  4513  0237  0824               	movf	Configure_Device_Id@C1,w
  4514  0238  00A0               	movwf	??_Configure_Device_Id
  4515  0239  3003               	movlw	3
  4516  023A                     u2115:
  4517  023A  35A0               	lslf	??_Configure_Device_Id,f
  4518  023B  0B89               	decfsz	9,f
  4519  023C  2A3A               	goto	u2115
  4520  023D  0823               	movf	Configure_Device_Id@C0,w
  4521  023E  00A1               	movwf	??_Configure_Device_Id+1
  4522  023F  3005               	movlw	5
  4523  0240                     u2125:
  4524  0240  35A1               	lslf	??_Configure_Device_Id+1,f
  4525  0241  3EFF               	addlw	-1
  4526  0242  1D03               	skipz
  4527  0243  2A40               	goto	u2125
  4528  0244  3521               	lslf	??_Configure_Device_Id+1,w
  4529  0245  0420               	iorwf	??_Configure_Device_Id,w
  4530  0246  0425               	iorwf	Configure_Device_Id@C2,w
  4531  0247  00A2               	movwf	??_Configure_Device_Id+2
  4532  0248  0822               	movf	??_Configure_Device_Id+2,w
  4533  0249  00E1               	movwf	_device_ID
  4534  024A                     l149:
  4535  024A  0008               	return
  4536  024B                     __end_of_Configure_Device_Id:
  4537                           
  4538                           	psect	text15
  4539  017D                     __ptext15:	
  4540 ;; *************** function ___lwdiv *****************
  4541 ;; Defined at:
  4542 ;;		line 5 in file "D:\Softwares\Microchip\xc8\v2.36\pic\sources\c99\common\lwdiv.c"
  4543 ;; Parameters:    Size  Location     Type
  4544 ;;  divisor         2    4[COMMON] unsigned int 
  4545 ;;  dividend        2    6[COMMON] unsigned int 
  4546 ;; Auto vars:     Size  Location     Type
  4547 ;;  quotient        2    9[COMMON] unsigned int 
  4548 ;;  counter         1   11[COMMON] unsigned char 
  4549 ;; Return value:  Size  Location     Type
  4550 ;;                  2    4[COMMON] unsigned int 
  4551 ;; Registers used:
  4552 ;;		wreg, status,2, status,0
  4553 ;; Tracked objects:
  4554 ;;		On entry : 0/0
  4555 ;;		On exit  : 0/0
  4556 ;;		Unchanged: 0/0
  4557 ;; Data sizes:     COMMON   BANK0   BANK1   BANK2
  4558 ;;      Params:         4       0       0       0
  4559 ;;      Locals:         3       0       0       0
  4560 ;;      Temps:          1       0       0       0
  4561 ;;      Totals:         8       0       0       0
  4562 ;;Total ram usage:        8 bytes
  4563 ;; Hardware stack levels used: 1
  4564 ;; This function calls:
  4565 ;;		Nothing
  4566 ;; This function is called by:
  4567 ;;		_Configure_Device_Id
  4568 ;; This function uses a non-reentrant model
  4569 ;;
  4570                           
  4571  017D                     ___lwdiv:	
  4572                           ;psect for function ___lwdiv
  4573                           
  4574  017D                     l1775:	
  4575                           ;incstack = 0
  4576                           ; Regs used in ___lwdiv: [wreg+status,2+status,0]
  4577                           
  4578  017D  01F9               	clrf	___lwdiv@quotient
  4579  017E  01FA               	clrf	___lwdiv@quotient+1
  4580  017F                     l1777:
  4581  017F  0874               	movf	___lwdiv@divisor,w
  4582  0180  0475               	iorwf	___lwdiv@divisor+1,w
  4583  0181  1903               	btfsc	3,2
  4584  0182  2984               	goto	u2041
  4585  0183  2985               	goto	u2040
  4586  0184                     u2041:
  4587  0184  29B4               	goto	l1797
  4588  0185                     u2040:
  4589  0185                     l1779:
  4590  0185  01FB               	clrf	___lwdiv@counter
  4591  0186  0AFB               	incf	___lwdiv@counter,f
  4592  0187  2991               	goto	l1785
  4593  0188                     l1781:
  4594  0188  3001               	movlw	1
  4595  0189                     u2055:
  4596  0189  35F4               	lslf	___lwdiv@divisor,f
  4597  018A  0DF5               	rlf	___lwdiv@divisor+1,f
  4598  018B  0B89               	decfsz	9,f
  4599  018C  2989               	goto	u2055
  4600  018D                     l1783:
  4601  018D  3001               	movlw	1
  4602  018E  00F8               	movwf	??___lwdiv
  4603  018F  0878               	movf	??___lwdiv,w
  4604  0190  07FB               	addwf	___lwdiv@counter,f
  4605  0191                     l1785:
  4606  0191  1FF5               	btfss	___lwdiv@divisor+1,7
  4607  0192  2994               	goto	u2061
  4608  0193  2995               	goto	u2060
  4609  0194                     u2061:
  4610  0194  2988               	goto	l1781
  4611  0195                     u2060:
  4612  0195                     l1787:
  4613  0195  3001               	movlw	1
  4614  0196                     u2075:
  4615  0196  35F9               	lslf	___lwdiv@quotient,f
  4616  0197  0DFA               	rlf	___lwdiv@quotient+1,f
  4617  0198  0B89               	decfsz	9,f
  4618  0199  2996               	goto	u2075
  4619  019A  0875               	movf	___lwdiv@divisor+1,w
  4620  019B  0277               	subwf	___lwdiv@dividend+1,w
  4621  019C  1D03               	skipz
  4622  019D  29A0               	goto	u2085
  4623  019E  0874               	movf	___lwdiv@divisor,w
  4624  019F  0276               	subwf	___lwdiv@dividend,w
  4625  01A0                     u2085:
  4626  01A0  1C03               	skipc
  4627  01A1  29A3               	goto	u2081
  4628  01A2  29A4               	goto	u2080
  4629  01A3                     u2081:
  4630  01A3  29A9               	goto	l1793
  4631  01A4                     u2080:
  4632  01A4                     l1789:
  4633  01A4  0874               	movf	___lwdiv@divisor,w
  4634  01A5  02F6               	subwf	___lwdiv@dividend,f
  4635  01A6  0875               	movf	___lwdiv@divisor+1,w
  4636  01A7  3BF7               	subwfb	___lwdiv@dividend+1,f
  4637  01A8                     l1791:
  4638  01A8  1479               	bsf	___lwdiv@quotient,0
  4639  01A9                     l1793:
  4640  01A9  3001               	movlw	1
  4641  01AA                     u2095:
  4642  01AA  36F5               	lsrf	___lwdiv@divisor+1,f
  4643  01AB  0CF4               	rrf	___lwdiv@divisor,f
  4644  01AC  0B89               	decfsz	9,f
  4645  01AD  29AA               	goto	u2095
  4646  01AE                     l1795:
  4647  01AE  3001               	movlw	1
  4648  01AF  02FB               	subwf	___lwdiv@counter,f
  4649  01B0  1D03               	btfss	3,2
  4650  01B1  29B3               	goto	u2101
  4651  01B2  29B4               	goto	u2100
  4652  01B3                     u2101:
  4653  01B3  2995               	goto	l1787
  4654  01B4                     u2100:
  4655  01B4                     l1797:
  4656  01B4  087A               	movf	___lwdiv@quotient+1,w
  4657  01B5  00F5               	movwf	?___lwdiv+1
  4658  01B6  0879               	movf	___lwdiv@quotient,w
  4659  01B7  00F4               	movwf	?___lwdiv
  4660  01B8                     l593:
  4661  01B8  0008               	return
  4662  01B9                     __end_of___lwdiv:
  4663                           
  4664                           	psect	text16
  4665  0109                     __ptext16:	
  4666 ;; *************** function _ADC_GetConversion *****************
  4667 ;; Defined at:
  4668 ;;		line 115 in file "mcc_generated_files/adc.c"
  4669 ;; Parameters:    Size  Location     Type
  4670 ;;  channel         1    wreg     enum E4844
  4671 ;; Auto vars:     Size  Location     Type
  4672 ;;  channel         1    3[COMMON] enum E4844
  4673 ;; Return value:  Size  Location     Type
  4674 ;;                  2    0[COMMON] unsigned short 
  4675 ;; Registers used:
  4676 ;;		wreg, status,2, status,0
  4677 ;; Tracked objects:
  4678 ;;		On entry : 0/0
  4679 ;;		On exit  : 0/0
  4680 ;;		Unchanged: 0/0
  4681 ;; Data sizes:     COMMON   BANK0   BANK1   BANK2
  4682 ;;      Params:         2       0       0       0
  4683 ;;      Locals:         1       0       0       0
  4684 ;;      Temps:          1       0       0       0
  4685 ;;      Totals:         4       0       0       0
  4686 ;;Total ram usage:        4 bytes
  4687 ;; Hardware stack levels used: 1
  4688 ;; This function calls:
  4689 ;;		Nothing
  4690 ;; This function is called by:
  4691 ;;		_Configure_Device_Id
  4692 ;;		_readTemperatureFromSensor
  4693 ;;		_readPressureFromSensor
  4694 ;; This function uses a non-reentrant model
  4695 ;;
  4696                           
  4697  0109                     _ADC_GetConversion:	
  4698                           ;psect for function _ADC_GetConversion
  4699                           
  4700                           
  4701                           ;incstack = 0
  4702                           ; Regs used in _ADC_GetConversion: [wreg+status,2+status,0]
  4703                           ;ADC_GetConversion@channel stored from wreg
  4704  0109  00F3               	movwf	ADC_GetConversion@channel
  4705  010A                     l1759:
  4706                           
  4707                           ;mcc_generated_files/adc.c: 115: adc_result_t ADC_GetConversion(adc_channel_t channel);m
      +                          cc_generated_files/adc.c: 116: {;mcc_generated_files/adc.c: 118:     ADCON0bits.CHS = ch
      +                          annel;
  4708  010A  0873               	movf	ADC_GetConversion@channel,w
  4709  010B  00F2               	movwf	??_ADC_GetConversion
  4710  010C  0DF2               	rlf	??_ADC_GetConversion,f
  4711  010D  0DF2               	rlf	??_ADC_GetConversion,f
  4712  010E  0021               	movlb	1	; select bank1
  4713  010F  081D               	movf	29,w	;volatile
  4714  0110  0672               	xorwf	??_ADC_GetConversion,w
  4715  0111  3903               	andlw	-253
  4716  0112  0672               	xorwf	??_ADC_GetConversion,w
  4717  0113  009D               	movwf	29	;volatile
  4718  0114                     l1761:
  4719                           
  4720                           ;mcc_generated_files/adc.c: 121:     ADCON0bits.ADON = 1;
  4721  0114  141D               	bsf	29,0	;volatile
  4722  0115                     l1763:
  4723                           
  4724                           ;mcc_generated_files/adc.c: 124:     _delay((unsigned long)((5)*(1000000/4000000.0)));
  4725  0115  0000               	nop
  4726  0116                     l1765:
  4727                           
  4728                           ;mcc_generated_files/adc.c: 127:     ADCON0bits.ADGO = 1;
  4729  0116  0021               	movlb	1	; select bank1
  4730  0117  149D               	bsf	29,1	;volatile
  4731  0118                     l68:	
  4732                           ;mcc_generated_files/adc.c: 131:     {;mcc_generated_files/adc.c: 132:     }
  4733                           
  4734                           
  4735                           ;mcc_generated_files/adc.c: 130:     while (ADCON0bits.ADGO)
  4736  0118  189D               	btfsc	29,1	;volatile
  4737  0119  291B               	goto	u2031
  4738  011A  291C               	goto	u2030
  4739  011B                     u2031:
  4740  011B  2918               	goto	l68
  4741  011C                     u2030:
  4742  011C                     l1767:
  4743                           
  4744                           ;mcc_generated_files/adc.c: 135:     return ((adc_result_t)((ADRESH << 8) + ADRESL));
  4745  011C  081C               	movf	28,w	;volatile
  4746  011D  00F1               	movwf	?_ADC_GetConversion+1
  4747  011E  081B               	movf	27,w	;volatile
  4748  011F  00F0               	movwf	?_ADC_GetConversion
  4749  0120                     l71:
  4750  0120  0008               	return
  4751  0121                     __end_of_ADC_GetConversion:
  4752  007E                     btemp	set	126	;btemp
  4753  007E                     wtemp0	set	126
  4754                           
  4755                           	psect	idloc
  4756                           
  4757                           ;Config register IDLOC0 @ 0x8000
  4758                           ;	unspecified, using default values
  4759  8000                     	org	32768
  4760  8000  3FFF               	dw	16383
  4761                           
  4762                           ;Config register IDLOC1 @ 0x8001
  4763                           ;	unspecified, using default values
  4764  8001                     	org	32769
  4765  8001  3FFF               	dw	16383
  4766                           
  4767                           ;Config register IDLOC2 @ 0x8002
  4768                           ;	unspecified, using default values
  4769  8002                     	org	32770
  4770  8002  3FFF               	dw	16383
  4771                           
  4772                           ;Config register IDLOC3 @ 0x8003
  4773                           ;	unspecified, using default values
  4774  8003                     	org	32771
  4775  8003  3FFF               	dw	16383
  4776                           
  4777                           	psect	config
  4778                           
  4779                           ;Config register CONFIG1 @ 0x8007
  4780                           ;	FEXTOSC External Oscillator mode Selection bits
  4781                           ;	FEXTOSC = OFF, Oscillator not enabled
  4782                           ;	Power-up default value for COSC bits
  4783                           ;	RSTOSC = HFINT1, HFINTOSC (1MHz)
  4784                           ;	Clock Out Enable bit
  4785                           ;	CLKOUTEN = OFF, CLKOUT function is disabled; I/O or oscillator function on OSC2
  4786                           ;	Clock Switch Enable bit
  4787                           ;	CSWEN = ON, Writing to NOSC and NDIV is allowed
  4788                           ;	Fail-Safe Clock Monitor Enable
  4789                           ;	FCMEN = ON, Fail-Safe Clock Monitor is enabled
  4790  8007                     	org	32775
  4791  8007  3FEC               	dw	16364
  4792                           
  4793                           ;Config register CONFIG2 @ 0x8008
  4794                           ;	Master Clear Enable bit
  4795                           ;	MCLRE = ON, MCLR/VPP pin function is MCLR; Weak pull-up enabled
  4796                           ;	Power-up Timer Enable bit
  4797                           ;	PWRTE = OFF, PWRT disabled
  4798                           ;	Watchdog Timer Enable bits
  4799                           ;	WDTE = OFF, WDT disabled; SWDTEN is ignored
  4800                           ;	Low-power BOR enable bit
  4801                           ;	LPBOREN = OFF, ULPBOR disabled
  4802                           ;	Brown-out Reset Enable bits
  4803                           ;	BOREN = ON, Brown-out Reset enabled, SBOREN bit ignored
  4804                           ;	Brown-out Reset Voltage selection bit
  4805                           ;	BORV = LOW, Brown-out voltage (Vbor) set to 2.45V
  4806                           ;	PPSLOCK bit One-Way Set Enable bit
  4807                           ;	PPS1WAY = ON, The PPSLOCK bit can be cleared and set only once; PPS registers remain l
      +                          ocked after one clear/set cycle
  4808                           ;	Stack Overflow/Underflow Reset Enable bit
  4809                           ;	STVREN = ON, Stack Overflow or Underflow will cause a Reset
  4810                           ;	Debugger enable bit
  4811                           ;	DEBUG = OFF, Background debugger disabled
  4812  8008                     	org	32776
  4813  8008  3FF3               	dw	16371
  4814                           
  4815                           ;Config register CONFIG3 @ 0x8009
  4816                           ;	User NVM self-write protection bits
  4817                           ;	WRT = OFF, Write protection off
  4818                           ;	Low Voltage Programming Enable bit
  4819                           ;	LVP = ON, Low Voltage programming enabled. MCLR/VPP pin function is MCLR. MCLRE config
      +                          uration bit is ignored.
  4820  8009                     	org	32777
  4821  8009  3FFF               	dw	16383
  4822                           
  4823                           ;Config register CONFIG4 @ 0x800A
  4824                           ;	User NVM Program Memory Code Protection bit
  4825                           ;	CP = OFF, User NVM code protection disabled
  4826                           ;	Data NVM Memory Code Protection bit
  4827                           ;	CPD = OFF, Data NVM code protection disabled
  4828  800A                     	org	32778
  4829  800A  3FFF               	dw	16383

Data Sizes:
    Strings     0
    Constant    0
    Data        0
    BSS         2
    Persistent  33
    Stack       0

Auto Spaces:
    Space          Size  Autos    Used
    COMMON           14     14      14
    BANK0            80     63      66
    BANK1            80      0       0
    BANK2            80      0       0

Pointer List with Targets:

    ADC_InterruptHandler	PTR FTN()void  size(2) Largest target is 1
		 -> Absolute function(), 


Critical Paths under _main in COMMON

    _calculateTemperatureFromVolatage->___xxtofl
    ___fltol->___xxtofl
    ___flmul->___xxtofl
    ___fladd->___xxtofl
    _Configure_Device_Id->___lwdiv
    ___lwdiv->_ADC_GetConversion

Critical Paths under _main in BANK0

    _main->_readTemperatureFromSensor
    _readTemperatureFromSensor->_calculateTemperatureFromVolatage
    _calculateTemperatureFromVolatage->___fltol
    ___fltol->___fladd
    ___fladd->___flmul

Critical Paths under _main in BANK1

    None.

Critical Paths under _main in BANK2

    None.

Call Graph Tables:

 ---------------------------------------------------------------------------------
 (Depth) Function   	        Calls       Base Space   Used Autos Params    Refs
 ---------------------------------------------------------------------------------
 (0) _main                                                 3     3      0    6235
                                             61 BANK0      2     2      0
                     _ADC_Initialize
                _Configure_Device_Id
                  _SYSTEM_Initialize
          _readTemperatureFromSensor
 ---------------------------------------------------------------------------------
 (1) _readTemperatureFromSensor                            2     2      0    5525
                                             59 BANK0      2     2      0
                  _ADC_GetConversion
   _calculateTemperatureFromVolatage
 ---------------------------------------------------------------------------------
 (2) _calculateTemperatureFromVolatage                     2     0      2    5480
                                             57 BANK0      2     0      2
                            ___fladd
                            ___flmul
                            ___fltol
                           ___xxtofl
 ---------------------------------------------------------------------------------
 (3) ___xxtofl                                            14    10      4     398
                                              0 COMMON    14    10      4
 ---------------------------------------------------------------------------------
 (3) ___fltol                                             11     7      4     305
                                             46 BANK0     11     7      4
                            ___fladd (ARG)
                            ___flmul (ARG)
                           ___xxtofl (ARG)
 ---------------------------------------------------------------------------------
 (3) ___flmul                                             26    18      8    2417
                                              0 BANK0     26    18      8
                          __Umul8_16
                           ___xxtofl (ARG)
 ---------------------------------------------------------------------------------
 (4) __Umul8_16                                            9     7      2     799
                                              0 COMMON     9     7      2
 ---------------------------------------------------------------------------------
 (3) ___fladd                                             20    12      8    2262
                                             26 BANK0     20    12      8
                            ___flmul (ARG)
                           ___xxtofl (ARG)
 ---------------------------------------------------------------------------------
 (1) _SYSTEM_Initialize                                    0     0      0       0
                     _ADC_Initialize
              _OSCILLATOR_Initialize
             _PIN_MANAGER_Initialize
                     _PMD_Initialize
                     _WDT_Initialize
 ---------------------------------------------------------------------------------
 (2) _WDT_Initialize                                       0     0      0       0
 ---------------------------------------------------------------------------------
 (2) _PMD_Initialize                                       0     0      0       0
 ---------------------------------------------------------------------------------
 (2) _PIN_MANAGER_Initialize                               0     0      0       0
 ---------------------------------------------------------------------------------
 (2) _OSCILLATOR_Initialize                                0     0      0       0
 ---------------------------------------------------------------------------------
 (2) _ADC_Initialize                                       0     0      0       0
 ---------------------------------------------------------------------------------
 (1) _Configure_Device_Id                                  6     6      0     709
                                              0 BANK0      6     6      0
                  _ADC_GetConversion
                            ___lwdiv
 ---------------------------------------------------------------------------------
 (2) ___lwdiv                                              8     4      4     618
                                              4 COMMON     8     4      4
                  _ADC_GetConversion (ARG)
 ---------------------------------------------------------------------------------
 (2) _ADC_GetConversion                                    4     2      2      22
                                              0 COMMON     4     2      2
 ---------------------------------------------------------------------------------
 Estimated maximum stack depth 4
 ---------------------------------------------------------------------------------

 Call Graph Graphs:

 _main (ROOT)
   _ADC_Initialize
   _Configure_Device_Id
     _ADC_GetConversion
     ___lwdiv
       _ADC_GetConversion (ARG)
   _SYSTEM_Initialize
     _ADC_Initialize
     _OSCILLATOR_Initialize
     _PIN_MANAGER_Initialize
     _PMD_Initialize
     _WDT_Initialize
   _readTemperatureFromSensor
     _ADC_GetConversion
     _calculateTemperatureFromVolatage
       ___fladd
         ___flmul (ARG)
           __Umul8_16
           ___xxtofl (ARG)
         ___xxtofl (ARG)
       ___flmul
       ___fltol
         ___fladd (ARG)
         ___flmul (ARG)
         ___xxtofl (ARG)
       ___xxtofl

 Address spaces:
Name               Size   Autos  Total    Cost      Usage
BIGRAM              F0      0       0       0        0.0%
EEDATA             100      0       0       0        0.0%
NULL                 0      0       0       0        0.0%
CODE                 0      0       0       0        0.0%
BITCOMMON            E      0       0       1        0.0%
BITSFR0              0      0       0       1        0.0%
SFR0                 0      0       0       1        0.0%
COMMON               E      E       E       2      100.0%
BITSFR1              0      0       0       2        0.0%
SFR1                 0      0       0       2        0.0%
BITSFR2              0      0       0       3        0.0%
SFR2                 0      0       0       3        0.0%
STACK                0      0       0       3        0.0%
BITSFR3              0      0       0       4        0.0%
SFR3                 0      0       0       4        0.0%
ABS                  0      0      50       4        0.0%
BITBANK0            50      0       0       5        0.0%
BITSFR4              0      0       0       5        0.0%
SFR4                 0      0       0       5        0.0%
BANK0               50     3F      42       6       82.5%
BITSFR5              0      0       0       6        0.0%
SFR5                 0      0       0       6        0.0%
BITBANK1            50      0       0       7        0.0%
BITSFR6              0      0       0       7        0.0%
SFR6                 0      0       0       7        0.0%
BANK1               50      0       0       8        0.0%
BITSFR7              0      0       0       8        0.0%
SFR7                 0      0       0       8        0.0%
BITBANK2            50      0       0       9        0.0%
BITSFR8              0      0       0       9        0.0%
SFR8                 0      0       0       9        0.0%
BANK2               50      0       0      10        0.0%
BITSFR9              0      0       0      10        0.0%
SFR9                 0      0       0      10        0.0%
BITSFR10             0      0       0      11        0.0%
SFR10                0      0       0      11        0.0%
DATA                 0      0      50      11        0.0%
BITSFR11             0      0       0      12        0.0%
SFR11                0      0       0      12        0.0%
BITSFR12             0      0       0      13        0.0%
SFR12                0      0       0      13        0.0%
BITSFR13             0      0       0      14        0.0%
SFR13                0      0       0      14        0.0%
BITSFR14             0      0       0      15        0.0%
SFR14                0      0       0      15        0.0%
BITSFR15             0      0       0      16        0.0%
SFR15                0      0       0      16        0.0%
BITSFR16             0      0       0      17        0.0%
SFR16                0      0       0      17        0.0%
BITSFR17             0      0       0      18        0.0%
SFR17                0      0       0      18        0.0%
BITSFR18             0      0       0      19        0.0%
SFR18                0      0       0      19        0.0%
BITSFR19             0      0       0      20        0.0%
SFR19                0      0       0      20        0.0%
BITSFR20             0      0       0      21        0.0%
SFR20                0      0       0      21        0.0%
BITSFR21             0      0       0      22        0.0%
SFR21                0      0       0      22        0.0%
BITSFR22             0      0       0      23        0.0%
SFR22                0      0       0      23        0.0%
BITSFR23             0      0       0      24        0.0%
SFR23                0      0       0      24        0.0%
BITSFR24             0      0       0      25        0.0%
SFR24                0      0       0      25        0.0%
BITSFR25             0      0       0      26        0.0%
SFR25                0      0       0      26        0.0%
BITSFR26             0      0       0      27        0.0%
SFR26                0      0       0      27        0.0%
BITSFR27             0      0       0      28        0.0%
SFR27                0      0       0      28        0.0%
BITSFR28             0      0       0      29        0.0%
SFR28                0      0       0      29        0.0%
BITSFR29             0      0       0      30        0.0%
SFR29                0      0       0      30        0.0%
BITSFR30             0      0       0      31        0.0%
SFR30                0      0       0      31        0.0%
BITSFR31             0      0       0      32        0.0%
SFR31                0      0       0      32        0.0%


Microchip Technology PIC Macro Assembler V2.36 build 20220127204148 
Symbol Table                                                                                   Sat May 14 17:32:58 2022

                                      l31 0159                                        l53 00DE  
                                      l71 0120                                        l68 0118  
                     __Umul8_16@word_mpld 0076                 _readTemperatureFromSensor 00F8  
                                     l111 00F7                                       l120 00D5  
                                     l114 00E7                                       l117 00CD  
                                     l152 0108                                       l155 01FA  
                                     l149 024A                                       l514 02AA  
                                     l507 02BF                                       l620 0447  
                                     l517 02BF                                       l614 03CA  
                                     l710 07FA                                       l618 046B  
                                     l722 07EE                                       l635 04FD  
                                     l627 05A3                                       l731 017C  
                                     l716 0776                                       l645 0541  
                                     l639 051F                                       l656 059A  
                                     l648 0578                                       l760 031D  
                                     l593 01B8                                       l657 05A3  
                                     l729 016C                                       l754 02E2  
                                     l756 036B                                       l767 0337  
                                     l768 0343                                       wreg 0009  
                            ___flmul@aexp 0032                              ___flmul@bexp 0033  
                            ___flmul@sign 002D                              ___flmul@temp 0038  
                            ___flmul@prod 0034                              ___fltol@exp1 0058  
                                    l1201 013F                                      l1211 0152  
                                    l1203 0142                                      l1221 00DA  
                                    l1213 0154                                      l1205 0144  
                                    l1223 00DB                                      l1215 0157  
                                    l1207 0147                                      l1225 00DC  
                                    l1217 00D6                                      l1241 00DF  
                                    l1209 014F                                      l1401 0398  
                                    l1219 00D9                                      l1243 00E2  
                                    l1411 03AC                                      l1403 039D  
                                    l1331 015B                                      l1245 00E3  
                                    l1501 04A2                                      l1421 03C0  
                                    l1413 03AD                                      l1405 03A3  
                                    l1341 0178                                      l1333 015D  
                                    l1247 00E6                                      l1239 00CE  
                                    l1511 04EC                                      l1503 04A7  
                                    l1431 03DC                                      l1415 03B2  
                                    l1423 03C2                                      l1407 03A4  
                                    l1335 0164                                      l1351 0260  
                                    l1249 00CA                                      l1281 00E8  
                                    l1521 0513                                      l1505 04BD  
                                    l1513 04F5                                      l1441 03F0  
                                    l1433 03E0                                      l1425 03D0  
                                    l1417 03B7                                      l1409 03A8  
                                    l1337 0168                                      l1601 05DD  
                                    l1361 0282                                      l1353 0273  
                                    l1345 024B                                      l1283 00EB  
                                    l1531 0528                                      l1523 051A  
                                    l1515 0505                                      l1507 04E1  
                                    l1451 0404                                      l1443 03F4  
                                    l1435 03E4                                      l1427 03D4  
                                    l1419 03BF                                      l1339 0173  
                                    l1611 05F9                                      l1603 05E2  
                                    l1355 0274                                      l1347 0257  
                                    l1285 00EE                                      l1541 0538  
                                    l1533 052D                                      l1525 051E  
                                    l1517 050A                                      l1509 04E7  
                                    l1461 0415                                      l1453 0408  
                                    l1445 03F8                                      l1437 03E8  
                                    l1429 03D8                                      l1381 036C  
                                    l1701 07D6                                      l1621 0619  
                                    l1613 05FE                                      l1605 05E7  
                                    l1357 027C                                      l1199 013C  
                                    l1287 00F1                                      l1551 0553  
                                    l1543 053E                                      l1527 0523  
                                    l1535 052F                                      l1471 0457  
                                    l1463 042C                                      l1455 040C  
                                    l1447 03FC                                      l1439 03EC  
                                    l1391 0380                                      l1383 0372  
                                    l1711 07F2                                      l1703 07D8  
                                    l1631 0674                                      l1623 0626  
                                    l1615 0603                                      l1607 05EF  
                                    l1375 02A1                                      l1367 028A  
                                    l1359 027E                                      l1801 01FB  
                                    l1289 00F4                                      l1561 058A  
                                    l1553 0557                                      l1529 0526  
                                    l1537 0533                                      l1481 0474  
                                    l1473 0458                                      l1465 044B  
                                    l1457 0410                                      l1449 0400  
                                    l1393 0385                                      l1385 0376  
                                    l1705 07E5                                      l1641 06A9  
                                    l1633 0681                                      l1625 0640  
                                    l1609 05F1                                      l1377 02AF  
                                    l1369 029A                                      l1721 02DA  
                                    l1803 0237                                      l1571 059E  
                                    l1563 058F                                      l1555 0574  
                                    l1547 0546                                      l1539 0534  
                                    l1491 048D                                      l1475 0460  
                                    l1467 0451                                      l1459 0414  
                                    l1395 038D                                      l1387 037A  
                                    l1707 07E9                                      l1651 06EC  
                                    l1643 06B0                                      l1635 0688  
                                    l1627 064D                                      l1619 060C  
                                    l1379 02B4                                      l1731 0303  
                                    l1723 02EA                                      l1715 02C1  
                                    l1811 012A                                      l1573 05A2  
                                    l1565 0590                                      l1557 057D  
                                    l1549 054B                                      l1493 0493  
                                    l1485 047D                                      l1469 0453  
                                    l1477 0464                                      l1397 038E  
                                    l1389 037B                                      l1709 07EA  
                                    l1661 073F                                      l1653 0700  
                                    l1645 06C4                                      l1637 0695  
                                    l1629 0667                                      l1581 05B2  
                                    l1741 032D                                      l1733 030A  
                                    l1717 02C6                                      l1805 00F8  
                                    l1813 0137                                      l1567 0594  
                                    l1559 0582                                      l1495 0495  
                                    l1487 0485                                      l1479 046F  
                                    l1399 0390                                      l1663 0746  
                                    l1671 0756                                      l1655 0715  
                                    l1647 06CB                                      l1639 069C  
                                    l1591 05C7                                      l1583 05B3  
                                    l1575 05A4                                      l1751 035E  
                                    l1743 0331                                      l1735 030E  
                                    l1727 02F3                                      l1719 02CA  
                                    l1761 0114                                      l1569 0596  
                                    l1497 0499                                      l1489 0489  
                                    l1673 075A                                      l1665 074A  
                                    l1657 072C                                      l1649 06DF  
                                    l1593 05CF                                      l1585 05B8  
                                    l1577 05AA                                      l1753 0362  
                                    l1745 033B                                      l1737 0316  
                                    l1729 02F8                                      l1809 0121  
                                    l1763 0115                                      l1499 049A  
                                    l1691 07A4                                      l1683 077B  
                                    l1675 075B                                      l1667 074B  
                                    l1659 0733                                      l1595 05D4  
                                    l1587 05BD                                      l1579 05AE  
                                    l1755 0363                                      l1747 0345  
                                    l1739 0324                                      l1771 01B9  
                                    l1765 0116                                      l1781 0188  
                                    l1685 0780                                      l1693 07A8  
                                    l1677 075F                                      l1669 0752  
                                    l1597 05D8                                      l1589 05C5  
                                    l1749 0359                                      l1767 011C  
                                    l1759 010A                                      l1791 01A8  
                                    l1783 018D                                      l1775 017D  
                                    l1695 07B5                                      l1687 0788  
                                    l1679 0773                                      l1599 05DC  
                                    l1793 01A9                                      l1785 0191  
                                    l1777 017F                                      l1697 07BF  
                                    l1689 078C                                      l1795 01AE  
                                    l1787 0195                                      l1779 0185  
                                    l1699 07CD                                      l1789 01A4  
                                    l1797 01B4                       _Configure_Device_Id 01FB  
                                    u1100 0257                                      u1101 0256  
                                    u1110 026D                                      u1200 037A  
                                    u1120 0282                                      u2000 034F  
                                    u1201 0379                                      u1121 0281  
                                    u1210 0380                                      u1130 0289  
                                    u2010 035E                                      u1211 037F  
                                    u1131 0288                                      u1115 0269  
                                    u2011 035D                                      u2100 01B4  
                                    u1300 0436                                      u1220 0385  
                                    u2020 0362                                      u2101 01B3  
                                    u1301 0434                                      u1221 0384  
                                    u2021 0361                                      u2005 034B  
                                    u2030 011C                                      u1310 0437  
                                    u1230 03A3                                      u1070 0168  
                                    u1150 0299                                      u2031 011B  
                                    u1231 03A2                                      u1071 0167  
                                    u1151 0298                                      u2040 0185  
                                    u1400 0499                                      u1320 044B  
                                    u1240 03AC                                      u1160 02A0  
                                    u2041 0184                                      u1401 0498  
                                    u1321 044A                                      u1241 03AB  
                                    u1161 029F                                      u1145 028B  
                                    u1330 0457                                      u1250 03B2  
                                    u1090 0178                                      u2115 023A  
                                    u1331 0456                                      u1251 03B1  
                                    u1091 0177                                      u2060 0195  
                                    u1500 0533                                      u1420 04BD  
                                    u1260 03B7                                      u1180 02AF  
                                    u2061 0194                                      u2125 0240  
                                    u1501 0532                                      u1421 04BC  
                                    u1261 03B6                                      u1085 016D  
                                    u1181 02AE                                      _LATA 010C  
                                    u1510 0538                                      u1430 04EC  
                                    u1350 046B                                      u1270 03D0  
                                    u1190 02B4                                      u2055 0189  
                                    u1511 0537                                      u1431 04EB  
                                    u1423 04B9                                      u1415 049C  
                                    u1351 046A                                      u1271 03CF  
                                    u1191 02B3                                      u1175 02A2  
                                    _LATC 010E                                      u2080 01A4  
                                    u1600 058F                                      u1520 053E  
                                    u1440 0505                                      u1360 046F  
                                    u1280 03D4                                      u2081 01A3  
                                    u1601 058E                                      u1521 053D  
                                    u1441 0504                                      u1361 046E  
                                    u1345 045A                                      u1281 03D3  
                                    u2137 0130                                      u1610 0594  
                                    u1530 0545                                      u1450 050A  
                                    u1370 0474                                      u1290 042C  
                                    u2075 0196                                      u1611 0593  
                                    u1531 0544                                      u1451 0509  
                                    u1371 0473                                      u1291 042B  
                                    u1620 05A2                                      u1540 054B  
                                    u1380 0489                                      u1700 0603  
                                    u2085 01A0                                      u1621 05A1  
                                    u1541 054A                                      u1381 0488  
                                    u1701 0602                                      u1550 0557  
                                    u1470 051E                                      u1390 048D  
                                    u1630 05B2                                      u2095 01AA  
                                    u1551 0556                                      u1471 051D  
                                    u1391 048C                                      u1295 0428  
                                    u1631 05B1                                      u1560 0565  
                                    u1480 0523                                      u1800 075F  
                                    u1640 05B8                                      u1481 0522  
                                    u1465 0514                                      u1801 075E  
                                    u1641 05B7                                      u1570 0574  
                                    u1490 052D                                      u1810 0773  
                                    u1730 070B                                      u1650 05BD  
                                    u1571 0573                                      u1491 052C  
                                    u1811 0772                                      u1715 0682  
                                    u1651 05BC                                      u1580 057D  
                                    u1820 077A                                      u1740 0722  
                                    u1660 05DC                                      u1900 02CA  
                                    u1581 057C                                      u1565 0561  
                                    u1821 0779                                      u1725 06B1  
                                    u1661 05DB                                      u1901 02C9  
                                    u1590 0582                                      u1830 0780  
                                    u1670 05E2                                      u1910 02EA  
                                    u1591 0581                                      u1831 077F  
                                    u1735 0707                                      u1671 05E1  
                                    u1911 02E9                                      u1840 078C  
                                    u1680 05E7                                      u1841 078B  
                                    u1745 071E                                      u1681 05E6  
                                    u1850 079A                                      u1770 074A  
                                    u1690 05FE                                      u1930 0309  
                                    u1771 0749                                      u1755 072D  
                                    u1691 05FD                                      u1931 0308  
                                    u1860 07B5                                      u1861 07B4  
                                    u1765 0740                                      u1925 02FD  
                                    u1870 07CD                                      u1790 075A  
                                    u1950 0323                                      u1871 07CC  
                                    u1855 0796                                      u1791 0759  
                                    u1951 0322                                      u1880 07E9  
                                    u1881 07E8                                      u1865 07B1  
                                    u1785 074C                                      u1945 0317  
                                    u1970 0331                                      u1890 02C6  
                                    u1875 07C9                                      u1971 0330  
                                    u1891 02C5                                      u1980 0337  
                                    _PMD0 0911                                      u1981 0336  
                                    u1965 0327                                      _PMD1 0912  
                                    u1990 033B                                      _PMD2 0913  
                                    u1991 033A                                      _PMD3 0914  
                                    _PMD4 0915                                      _PMD5 0916  
                                    _WPUA 020C                                      _WPUC 020E  
                                    _main 0121                                      btemp 007E  
                                    start 0001                      ?_Configure_Device_Id 0070  
           __end_of_OSCILLATOR_Initialize 00E8                             ___fltol@sign1 0057  
                                   _ADACT 009F                           __end_of___fladd 05A4  
                                   ?_main 0070                           __end_of___flmul 07FB  
                         __end_of___fltol 02C0                           __end_of___lwdiv 01B9  
                                   _OSCEN 091D                                     _TRISA 008C  
                                   _TRISC 008E                            _WDT_Initialize 00CA  
                                   status 0003                                     wtemp0 007E  
                         __initialization 07FB                              __end_of_main 013C  
                   ??_Configure_Device_Id 0020          readTemperatureFromSensor@voltage 005B  
                                  ??_main 005D                    __end_of_WDT_Initialize 00CE  
                                  _ADCON0 009D                                    _ADCON1 009E  
                                  _ADRESH 009C                                    _ADRESL 009B  
                                  _ANSELA 018C                                    _ANSELC 018E  
                                  _ODCONA 028C                                    _ODCONC 028E  
                                  _INLVLA 038C                                    _INLVLC 038E  
                                  _OSCFRQ 091F                                    _WDTCON 0097  
                        __end_of___xxtofl 036C                                 ??___fladd 0042  
                               ??___flmul 0028                                 ??___fltol 0052  
                               ??___lwdiv 0078                            _PMD_Initialize 00CE  
                         ?_WDT_Initialize 0070                  ADC_GetConversion@channel 0073  
                            ___xxtofl@arg 007A                              ___xxtofl@exp 0079  
                       _SYSTEM_Initialize 00E8                              ___xxtofl@val 0070  
                 __end_of__initialization 07FE                        ?_SYSTEM_Initialize 0070  
                              ___fltol@f1 004E                            __pcstackCOMMON 0070  
                     ??_SYSTEM_Initialize 0070                    __end_of_PMD_Initialize 00D6  
               __end_of_SYSTEM_Initialize 00F8                                __pbssBANK0 005F  
       __end_of_readTemperatureFromSensor 0109                         __end_of__Umul8_16 017D  
                              __pmaintext 0121                           ?_PMD_Initialize 0070  
                               ?___xxtofl 0070                                   _OSCCON1 0919  
                                 _OSCCON3 091B                                   _OSCTUNE 091E  
                                 _SLRCONA 030C                                   _SLRCONC 030E  
                    _ADC_InterruptHandler 005F                                   ___fladd 036C  
                                 ___flmul 05A4                                   ___fltol 024B  
                                 ___lwdiv 017D                                   __ptext1 00F8  
                                 __ptext2 01B9                                   __ptext3 02C0  
                                 __ptext4 024B                                   __ptext5 05A4  
                                 __ptext6 015A                                   __ptext7 036C  
                                 __ptext8 00E8                                   __ptext9 00CA  
                   _OSCILLATOR_Initialize 00DF                                ??___xxtofl 0074  
                ??_PIN_MANAGER_Initialize 0070  __end_of_calculateTemperatureFromVolatage 01FB  
       ?_calculateTemperatureFromVolatage 0059        ??_calculateTemperatureFromVolatage 007E  
        _calculateTemperatureFromVolatage 01B9                      end_of_initialization 07FE  
             __end_of_Configure_Device_Id 024B                          ??_WDT_Initialize 0070  
                   Configure_Device_Id@C0 0023                     Configure_Device_Id@C1 0024  
                   Configure_Device_Id@C2 0025                               ___fladd@grs 004D  
                           ___xxtofl@sign 0078                               ___flmul@grs 002E  
                          _ADC_Initialize 00D6                    ?_OSCILLATOR_Initialize 0070  
                     start_initialization 07FB                          ??_PMD_Initialize 0070  
                  __end_of_ADC_Initialize 00DF                                 __Umul8_16 015A  
                               ___fladd@a 003E                                 ___fladd@b 003A  
                               ___flmul@a 0024                                 ___flmul@b 0020  
                               ___latbits 0000                             __pcstackBANK0 0020  
              ?_readTemperatureFromSensor 0070                                 __pnvBANK0 0061  
                        ___lwdiv@dividend 0076                    _PIN_MANAGER_Initialize 013C  
                               _device_ID 0061                                  ?___fladd 003A  
                                ?___flmul 0020                                  ?___fltol 004E  
                              ?__Umul8_16 0070                                  ?___lwdiv 0074  
                         ?_ADC_Initialize 0070                          ___lwdiv@quotient 0079  
                              _ADCON0bits 009D                         _ADC_GetConversion 0109  
                 ??_OSCILLATOR_Initialize 0070                               ??__Umul8_16 0072  
                      ?_ADC_GetConversion 0070                       ??_ADC_GetConversion 0072  
                                ___xxtofl 02C0                           ___lwdiv@divisor 0074  
                         ___lwdiv@counter 007B                                  __ptext10 00CE  
                                __ptext11 013C                                  __ptext12 00DF  
                                __ptext13 00D6                                  __ptext14 01FB  
                                __ptext15 017D                                  __ptext16 0109  
               __end_of_ADC_GetConversion 0121       calculateTemperatureFromVolatage@vol 0059  
                 ?_PIN_MANAGER_Initialize 0070               ??_readTemperatureFromSensor 007E  
                        ??_ADC_Initialize 0070                    __Umul8_16@multiplicand 0070  
                           ___fladd@signs 004A            __end_of_PIN_MANAGER_Initialize 015A  
                            ___fladd@aexp 004B                              ___fladd@bexp 004C  
                    __Umul8_16@multiplier 0078                         __Umul8_16@product 0074  
