

Microchip MPLAB XC8 Assembler V2.36 build 20220127204148 
                                                                                               Sat May 14 17:33:43 2022

Microchip MPLAB XC8 C Compiler v2.36 (Free license) build 20220127204148 Og9 
     1                           	processor	16F18323
     2                           	pagewidth 120
     3                           	opt	flic
     4                           	psect	nvBANK0,global,class=BANK0,space=1,delta=1,noexec
     5                           	psect	cinit,global,class=CODE,merge=1,delta=2
     6                           	psect	bssBANK0,global,class=BANK0,space=1,delta=1,noexec
     7                           	psect	cstackCOMMON,global,class=COMMON,space=1,delta=1,noexec
     8                           	psect	cstackBANK0,global,class=BANK0,space=1,delta=1,noexec
     9                           	psect	maintext,global,class=CODE,merge=1,split=1,delta=2
    10                           	psect	text1,local,class=CODE,merge=1,delta=2
    11                           	psect	text2,local,class=CODE,merge=1,delta=2
    12                           	psect	text3,local,class=CODE,merge=1,delta=2,group=1
    13                           	psect	text4,local,class=CODE,merge=1,delta=2,group=1
    14                           	psect	text5,local,class=CODE,merge=1,delta=2,group=1
    15                           	psect	text6,local,class=CODE,merge=1,delta=2,group=1
    16                           	psect	text7,local,class=CODE,merge=1,delta=2,group=1
    17                           	psect	text8,local,class=CODE,merge=1,delta=2
    18                           	psect	text9,local,class=CODE,merge=1,delta=2
    19                           	psect	text10,local,class=CODE,merge=1,delta=2
    20                           	psect	text11,local,class=CODE,merge=1,delta=2
    21                           	psect	text12,local,class=CODE,merge=1,delta=2
    22                           	psect	text13,local,class=CODE,merge=1,delta=2
    23                           	psect	text14,local,class=CODE,merge=1,delta=2
    24                           	psect	text15,local,class=CODE,merge=1,delta=2,group=1
    25                           	psect	text16,local,class=CODE,merge=1,delta=2
    26                           	psect	idloc,global,abs,ovrld,class=IDLOC,space=5,delta=2,noexec
    27                           	psect	config,global,abs,ovrld,class=CONFIG,space=4,delta=2,noexec
    28                           	dabs	1,0x7E,2
    29  0000                     
    30                           ; Version 2.40
    31                           ; Generated 17/02/2022 GMT
    32                           ; 
    33                           ; Copyright © 2022, Microchip Technology Inc. and its subsidiaries ("Microchip")
    34                           ; All rights reserved.
    35                           ; 
    36                           ; This software is developed by Microchip Technology Inc. and its subsidiaries ("Microch
      +                          ip").
    37                           ; 
    38                           ; Redistribution and use in source and binary forms, with or without modification, are
    39                           ; permitted provided that the following conditions are met:
    40                           ; 
    41                           ;     1. Redistributions of source code must retain the above copyright notice, this lis
      +                          t of
    42                           ;        conditions and the following disclaimer.
    43                           ; 
    44                           ;     2. Redistributions in binary form must reproduce the above copyright notice, this 
      +                          list
    45                           ;        of conditions and the following disclaimer in the documentation and/or other
    46                           ;        materials provided with the distribution. Publication is not required when
    47                           ;        this file is used in an embedded application.
    48                           ; 
    49                           ;     3. Microchip's name may not be used to endorse or promote products derived from th
      +                          is
    50                           ;        software without specific prior written permission.
    51                           ; 
    52                           ; THIS SOFTWARE IS PROVIDED BY MICROCHIP "AS IS" AND ANY EXPRESS OR IMPLIED WARRANTIES,
    53                           ; INCLUDING, BUT NOT LIMITED TO, THE IMPLIED WARRANTIES OF MERCHANTABILITY AND FITNESS F
      +                          OR
    54                           ; PURPOSE ARE DISCLAIMED.  IN NO EVENT SHALL MICROCHIP BE LIABLE FOR ANY DIRECT, INDIREC
      +                          T,
    55                           ; INCIDENTAL, SPECIAL, EXEMPLARY, OR CONSEQUENTIAL DAMAGES (INCLUDING BUT NOT LIMITED TO
    56                           ; PROCUREMENT OF SUBSTITUTE GOODS OR SERVICES; LOSS OF USE, DATA OR PROFITS; OR BUSINESS
    57                           ; INTERRUPTION) HOWSOEVER CAUSED AND ON ANY THEORY OF LIABILITY, WHETHER IN CONTRACT, ST
      +                          RICT
    58                           ; LIABILITY, OR TORT (INCLUDING NEGLIGENCE OR OTHERWISE) ARISING IN ANY WAY OUT OF THE U
      +                          SE OF
    59                           ; THIS SOFTWARE, EVEN IF ADVISED OF THE POSSIBILITY OF SUCH DAMAGE.
    60                           ; 
    61                           ; 
    62                           ; Code-generator required, PIC16F18323 Definitions
    63                           ; 
    64                           ; SFR Addresses
    65  0000                     	;# 
    66  0001                     	;# 
    67  0002                     	;# 
    68  0003                     	;# 
    69  0004                     	;# 
    70  0005                     	;# 
    71  0006                     	;# 
    72  0007                     	;# 
    73  0008                     	;# 
    74  0009                     	;# 
    75  000A                     	;# 
    76  000B                     	;# 
    77  000C                     	;# 
    78  000E                     	;# 
    79  0010                     	;# 
    80  0011                     	;# 
    81  0012                     	;# 
    82  0013                     	;# 
    83  0014                     	;# 
    84  0015                     	;# 
    85  0015                     	;# 
    86  0016                     	;# 
    87  0016                     	;# 
    88  0017                     	;# 
    89  0018                     	;# 
    90  0019                     	;# 
    91  0019                     	;# 
    92  001A                     	;# 
    93  001B                     	;# 
    94  001C                     	;# 
    95  001D                     	;# 
    96  001E                     	;# 
    97  001F                     	;# 
    98  008C                     	;# 
    99  008E                     	;# 
   100  0090                     	;# 
   101  0091                     	;# 
   102  0092                     	;# 
   103  0093                     	;# 
   104  0094                     	;# 
   105  0097                     	;# 
   106  009B                     	;# 
   107  009B                     	;# 
   108  009C                     	;# 
   109  009D                     	;# 
   110  009E                     	;# 
   111  009F                     	;# 
   112  010C                     	;# 
   113  010E                     	;# 
   114  0111                     	;# 
   115  0112                     	;# 
   116  0113                     	;# 
   117  0114                     	;# 
   118  0115                     	;# 
   119  0116                     	;# 
   120  0117                     	;# 
   121  0118                     	;# 
   122  0119                     	;# 
   123  018C                     	;# 
   124  018E                     	;# 
   125  0197                     	;# 
   126  0199                     	;# 
   127  0199                     	;# 
   128  0199                     	;# 
   129  019A                     	;# 
   130  019A                     	;# 
   131  019A                     	;# 
   132  019B                     	;# 
   133  019B                     	;# 
   134  019B                     	;# 
   135  019B                     	;# 
   136  019B                     	;# 
   137  019C                     	;# 
   138  019C                     	;# 
   139  019C                     	;# 
   140  019D                     	;# 
   141  019D                     	;# 
   142  019D                     	;# 
   143  019E                     	;# 
   144  019E                     	;# 
   145  019E                     	;# 
   146  019F                     	;# 
   147  019F                     	;# 
   148  019F                     	;# 
   149  019F                     	;# 
   150  019F                     	;# 
   151  020C                     	;# 
   152  020E                     	;# 
   153  0211                     	;# 
   154  0211                     	;# 
   155  0212                     	;# 
   156  0212                     	;# 
   157  0213                     	;# 
   158  0213                     	;# 
   159  0214                     	;# 
   160  0214                     	;# 
   161  0215                     	;# 
   162  0215                     	;# 
   163  0215                     	;# 
   164  0215                     	;# 
   165  0216                     	;# 
   166  0216                     	;# 
   167  0217                     	;# 
   168  0217                     	;# 
   169  028C                     	;# 
   170  028E                     	;# 
   171  0291                     	;# 
   172  0291                     	;# 
   173  0292                     	;# 
   174  0293                     	;# 
   175  0294                     	;# 
   176  0295                     	;# 
   177  0295                     	;# 
   178  0296                     	;# 
   179  0297                     	;# 
   180  0298                     	;# 
   181  030C                     	;# 
   182  030E                     	;# 
   183  038C                     	;# 
   184  038E                     	;# 
   185  0391                     	;# 
   186  0392                     	;# 
   187  0393                     	;# 
   188  0397                     	;# 
   189  0398                     	;# 
   190  0399                     	;# 
   191  039A                     	;# 
   192  039C                     	;# 
   193  039D                     	;# 
   194  039E                     	;# 
   195  039F                     	;# 
   196  0498                     	;# 
   197  0498                     	;# 
   198  0499                     	;# 
   199  049A                     	;# 
   200  049B                     	;# 
   201  049B                     	;# 
   202  049C                     	;# 
   203  049D                     	;# 
   204  049E                     	;# 
   205  049F                     	;# 
   206  0617                     	;# 
   207  0618                     	;# 
   208  0619                     	;# 
   209  0619                     	;# 
   210  061A                     	;# 
   211  061B                     	;# 
   212  061C                     	;# 
   213  061C                     	;# 
   214  0691                     	;# 
   215  0692                     	;# 
   216  0693                     	;# 
   217  0694                     	;# 
   218  0695                     	;# 
   219  0696                     	;# 
   220  0697                     	;# 
   221  0698                     	;# 
   222  0699                     	;# 
   223  0891                     	;# 
   224  0891                     	;# 
   225  0891                     	;# 
   226  0891                     	;# 
   227  0891                     	;# 
   228  0891                     	;# 
   229  0892                     	;# 
   230  0892                     	;# 
   231  0892                     	;# 
   232  0893                     	;# 
   233  0893                     	;# 
   234  0893                     	;# 
   235  0893                     	;# 
   236  0893                     	;# 
   237  0893                     	;# 
   238  0894                     	;# 
   239  0894                     	;# 
   240  0894                     	;# 
   241  0895                     	;# 
   242  0895                     	;# 
   243  0895                     	;# 
   244  0896                     	;# 
   245  0896                     	;# 
   246  0896                     	;# 
   247  089B                     	;# 
   248  0911                     	;# 
   249  0912                     	;# 
   250  0913                     	;# 
   251  0914                     	;# 
   252  0915                     	;# 
   253  0916                     	;# 
   254  0918                     	;# 
   255  0919                     	;# 
   256  091A                     	;# 
   257  091B                     	;# 
   258  091C                     	;# 
   259  091D                     	;# 
   260  091E                     	;# 
   261  091F                     	;# 
   262  0E0F                     	;# 
   263  0E10                     	;# 
   264  0E11                     	;# 
   265  0E12                     	;# 
   266  0E13                     	;# 
   267  0E14                     	;# 
   268  0E15                     	;# 
   269  0E18                     	;# 
   270  0E1A                     	;# 
   271  0E1B                     	;# 
   272  0E1C                     	;# 
   273  0E20                     	;# 
   274  0E21                     	;# 
   275  0E22                     	;# 
   276  0E24                     	;# 
   277  0E25                     	;# 
   278  0E28                     	;# 
   279  0E29                     	;# 
   280  0E2A                     	;# 
   281  0E2B                     	;# 
   282  0E90                     	;# 
   283  0E91                     	;# 
   284  0E92                     	;# 
   285  0E94                     	;# 
   286  0E95                     	;# 
   287  0EA0                     	;# 
   288  0EA1                     	;# 
   289  0EA2                     	;# 
   290  0EA3                     	;# 
   291  0EA4                     	;# 
   292  0EA5                     	;# 
   293  0F0F                     	;# 
   294  0F10                     	;# 
   295  0F11                     	;# 
   296  0F12                     	;# 
   297  0F13                     	;# 
   298  0F14                     	;# 
   299  0F15                     	;# 
   300  0F16                     	;# 
   301  0F17                     	;# 
   302  0F18                     	;# 
   303  0F19                     	;# 
   304  0F1A                     	;# 
   305  0F1B                     	;# 
   306  0F1C                     	;# 
   307  0F1D                     	;# 
   308  0F1E                     	;# 
   309  0F1F                     	;# 
   310  0F20                     	;# 
   311  0F21                     	;# 
   312  0F22                     	;# 
   313  0F23                     	;# 
   314  0FE4                     	;# 
   315  0FE5                     	;# 
   316  0FE6                     	;# 
   317  0FE7                     	;# 
   318  0FE8                     	;# 
   319  0FE9                     	;# 
   320  0FEA                     	;# 
   321  0FEB                     	;# 
   322  0FED                     	;# 
   323  0FEE                     	;# 
   324  0FEF                     	;# 
   325  0000                     	;# 
   326  0001                     	;# 
   327  0002                     	;# 
   328  0003                     	;# 
   329  0004                     	;# 
   330  0005                     	;# 
   331  0006                     	;# 
   332  0007                     	;# 
   333  0008                     	;# 
   334  0009                     	;# 
   335  000A                     	;# 
   336  000B                     	;# 
   337  000C                     	;# 
   338  000E                     	;# 
   339  0010                     	;# 
   340  0011                     	;# 
   341  0012                     	;# 
   342  0013                     	;# 
   343  0014                     	;# 
   344  0015                     	;# 
   345  0015                     	;# 
   346  0016                     	;# 
   347  0016                     	;# 
   348  0017                     	;# 
   349  0018                     	;# 
   350  0019                     	;# 
   351  0019                     	;# 
   352  001A                     	;# 
   353  001B                     	;# 
   354  001C                     	;# 
   355  001D                     	;# 
   356  001E                     	;# 
   357  001F                     	;# 
   358  008C                     	;# 
   359  008E                     	;# 
   360  0090                     	;# 
   361  0091                     	;# 
   362  0092                     	;# 
   363  0093                     	;# 
   364  0094                     	;# 
   365  0097                     	;# 
   366  009B                     	;# 
   367  009B                     	;# 
   368  009C                     	;# 
   369  009D                     	;# 
   370  009E                     	;# 
   371  009F                     	;# 
   372  010C                     	;# 
   373  010E                     	;# 
   374  0111                     	;# 
   375  0112                     	;# 
   376  0113                     	;# 
   377  0114                     	;# 
   378  0115                     	;# 
   379  0116                     	;# 
   380  0117                     	;# 
   381  0118                     	;# 
   382  0119                     	;# 
   383  018C                     	;# 
   384  018E                     	;# 
   385  0197                     	;# 
   386  0199                     	;# 
   387  0199                     	;# 
   388  0199                     	;# 
   389  019A                     	;# 
   390  019A                     	;# 
   391  019A                     	;# 
   392  019B                     	;# 
   393  019B                     	;# 
   394  019B                     	;# 
   395  019B                     	;# 
   396  019B                     	;# 
   397  019C                     	;# 
   398  019C                     	;# 
   399  019C                     	;# 
   400  019D                     	;# 
   401  019D                     	;# 
   402  019D                     	;# 
   403  019E                     	;# 
   404  019E                     	;# 
   405  019E                     	;# 
   406  019F                     	;# 
   407  019F                     	;# 
   408  019F                     	;# 
   409  019F                     	;# 
   410  019F                     	;# 
   411  020C                     	;# 
   412  020E                     	;# 
   413  0211                     	;# 
   414  0211                     	;# 
   415  0212                     	;# 
   416  0212                     	;# 
   417  0213                     	;# 
   418  0213                     	;# 
   419  0214                     	;# 
   420  0214                     	;# 
   421  0215                     	;# 
   422  0215                     	;# 
   423  0215                     	;# 
   424  0215                     	;# 
   425  0216                     	;# 
   426  0216                     	;# 
   427  0217                     	;# 
   428  0217                     	;# 
   429  028C                     	;# 
   430  028E                     	;# 
   431  0291                     	;# 
   432  0291                     	;# 
   433  0292                     	;# 
   434  0293                     	;# 
   435  0294                     	;# 
   436  0295                     	;# 
   437  0295                     	;# 
   438  0296                     	;# 
   439  0297                     	;# 
   440  0298                     	;# 
   441  030C                     	;# 
   442  030E                     	;# 
   443  038C                     	;# 
   444  038E                     	;# 
   445  0391                     	;# 
   446  0392                     	;# 
   447  0393                     	;# 
   448  0397                     	;# 
   449  0398                     	;# 
   450  0399                     	;# 
   451  039A                     	;# 
   452  039C                     	;# 
   453  039D                     	;# 
   454  039E                     	;# 
   455  039F                     	;# 
   456  0498                     	;# 
   457  0498                     	;# 
   458  0499                     	;# 
   459  049A                     	;# 
   460  049B                     	;# 
   461  049B                     	;# 
   462  049C                     	;# 
   463  049D                     	;# 
   464  049E                     	;# 
   465  049F                     	;# 
   466  0617                     	;# 
   467  0618                     	;# 
   468  0619                     	;# 
   469  0619                     	;# 
   470  061A                     	;# 
   471  061B                     	;# 
   472  061C                     	;# 
   473  061C                     	;# 
   474  0691                     	;# 
   475  0692                     	;# 
   476  0693                     	;# 
   477  0694                     	;# 
   478  0695                     	;# 
   479  0696                     	;# 
   480  0697                     	;# 
   481  0698                     	;# 
   482  0699                     	;# 
   483  0891                     	;# 
   484  0891                     	;# 
   485  0891                     	;# 
   486  0891                     	;# 
   487  0891                     	;# 
   488  0891                     	;# 
   489  0892                     	;# 
   490  0892                     	;# 
   491  0892                     	;# 
   492  0893                     	;# 
   493  0893                     	;# 
   494  0893                     	;# 
   495  0893                     	;# 
   496  0893                     	;# 
   497  0893                     	;# 
   498  0894                     	;# 
   499  0894                     	;# 
   500  0894                     	;# 
   501  0895                     	;# 
   502  0895                     	;# 
   503  0895                     	;# 
   504  0896                     	;# 
   505  0896                     	;# 
   506  0896                     	;# 
   507  089B                     	;# 
   508  0911                     	;# 
   509  0912                     	;# 
   510  0913                     	;# 
   511  0914                     	;# 
   512  0915                     	;# 
   513  0916                     	;# 
   514  0918                     	;# 
   515  0919                     	;# 
   516  091A                     	;# 
   517  091B                     	;# 
   518  091C                     	;# 
   519  091D                     	;# 
   520  091E                     	;# 
   521  091F                     	;# 
   522  0E0F                     	;# 
   523  0E10                     	;# 
   524  0E11                     	;# 
   525  0E12                     	;# 
   526  0E13                     	;# 
   527  0E14                     	;# 
   528  0E15                     	;# 
   529  0E18                     	;# 
   530  0E1A                     	;# 
   531  0E1B                     	;# 
   532  0E1C                     	;# 
   533  0E20                     	;# 
   534  0E21                     	;# 
   535  0E22                     	;# 
   536  0E24                     	;# 
   537  0E25                     	;# 
   538  0E28                     	;# 
   539  0E29                     	;# 
   540  0E2A                     	;# 
   541  0E2B                     	;# 
   542  0E90                     	;# 
   543  0E91                     	;# 
   544  0E92                     	;# 
   545  0E94                     	;# 
   546  0E95                     	;# 
   547  0EA0                     	;# 
   548  0EA1                     	;# 
   549  0EA2                     	;# 
   550  0EA3                     	;# 
   551  0EA4                     	;# 
   552  0EA5                     	;# 
   553  0F0F                     	;# 
   554  0F10                     	;# 
   555  0F11                     	;# 
   556  0F12                     	;# 
   557  0F13                     	;# 
   558  0F14                     	;# 
   559  0F15                     	;# 
   560  0F16                     	;# 
   561  0F17                     	;# 
   562  0F18                     	;# 
   563  0F19                     	;# 
   564  0F1A                     	;# 
   565  0F1B                     	;# 
   566  0F1C                     	;# 
   567  0F1D                     	;# 
   568  0F1E                     	;# 
   569  0F1F                     	;# 
   570  0F20                     	;# 
   571  0F21                     	;# 
   572  0F22                     	;# 
   573  0F23                     	;# 
   574  0FE4                     	;# 
   575  0FE5                     	;# 
   576  0FE6                     	;# 
   577  0FE7                     	;# 
   578  0FE8                     	;# 
   579  0FE9                     	;# 
   580  0FEA                     	;# 
   581  0FEB                     	;# 
   582  0FED                     	;# 
   583  0FEE                     	;# 
   584  0FEF                     	;# 
   585  0000                     	;# 
   586  0001                     	;# 
   587  0002                     	;# 
   588  0003                     	;# 
   589  0004                     	;# 
   590  0005                     	;# 
   591  0006                     	;# 
   592  0007                     	;# 
   593  0008                     	;# 
   594  0009                     	;# 
   595  000A                     	;# 
   596  000B                     	;# 
   597  000C                     	;# 
   598  000E                     	;# 
   599  0010                     	;# 
   600  0011                     	;# 
   601  0012                     	;# 
   602  0013                     	;# 
   603  0014                     	;# 
   604  0015                     	;# 
   605  0015                     	;# 
   606  0016                     	;# 
   607  0016                     	;# 
   608  0017                     	;# 
   609  0018                     	;# 
   610  0019                     	;# 
   611  0019                     	;# 
   612  001A                     	;# 
   613  001B                     	;# 
   614  001C                     	;# 
   615  001D                     	;# 
   616  001E                     	;# 
   617  001F                     	;# 
   618  008C                     	;# 
   619  008E                     	;# 
   620  0090                     	;# 
   621  0091                     	;# 
   622  0092                     	;# 
   623  0093                     	;# 
   624  0094                     	;# 
   625  0097                     	;# 
   626  009B                     	;# 
   627  009B                     	;# 
   628  009C                     	;# 
   629  009D                     	;# 
   630  009E                     	;# 
   631  009F                     	;# 
   632  010C                     	;# 
   633  010E                     	;# 
   634  0111                     	;# 
   635  0112                     	;# 
   636  0113                     	;# 
   637  0114                     	;# 
   638  0115                     	;# 
   639  0116                     	;# 
   640  0117                     	;# 
   641  0118                     	;# 
   642  0119                     	;# 
   643  018C                     	;# 
   644  018E                     	;# 
   645  0197                     	;# 
   646  0199                     	;# 
   647  0199                     	;# 
   648  0199                     	;# 
   649  019A                     	;# 
   650  019A                     	;# 
   651  019A                     	;# 
   652  019B                     	;# 
   653  019B                     	;# 
   654  019B                     	;# 
   655  019B                     	;# 
   656  019B                     	;# 
   657  019C                     	;# 
   658  019C                     	;# 
   659  019C                     	;# 
   660  019D                     	;# 
   661  019D                     	;# 
   662  019D                     	;# 
   663  019E                     	;# 
   664  019E                     	;# 
   665  019E                     	;# 
   666  019F                     	;# 
   667  019F                     	;# 
   668  019F                     	;# 
   669  019F                     	;# 
   670  019F                     	;# 
   671  020C                     	;# 
   672  020E                     	;# 
   673  0211                     	;# 
   674  0211                     	;# 
   675  0212                     	;# 
   676  0212                     	;# 
   677  0213                     	;# 
   678  0213                     	;# 
   679  0214                     	;# 
   680  0214                     	;# 
   681  0215                     	;# 
   682  0215                     	;# 
   683  0215                     	;# 
   684  0215                     	;# 
   685  0216                     	;# 
   686  0216                     	;# 
   687  0217                     	;# 
   688  0217                     	;# 
   689  028C                     	;# 
   690  028E                     	;# 
   691  0291                     	;# 
   692  0291                     	;# 
   693  0292                     	;# 
   694  0293                     	;# 
   695  0294                     	;# 
   696  0295                     	;# 
   697  0295                     	;# 
   698  0296                     	;# 
   699  0297                     	;# 
   700  0298                     	;# 
   701  030C                     	;# 
   702  030E                     	;# 
   703  038C                     	;# 
   704  038E                     	;# 
   705  0391                     	;# 
   706  0392                     	;# 
   707  0393                     	;# 
   708  0397                     	;# 
   709  0398                     	;# 
   710  0399                     	;# 
   711  039A                     	;# 
   712  039C                     	;# 
   713  039D                     	;# 
   714  039E                     	;# 
   715  039F                     	;# 
   716  0498                     	;# 
   717  0498                     	;# 
   718  0499                     	;# 
   719  049A                     	;# 
   720  049B                     	;# 
   721  049B                     	;# 
   722  049C                     	;# 
   723  049D                     	;# 
   724  049E                     	;# 
   725  049F                     	;# 
   726  0617                     	;# 
   727  0618                     	;# 
   728  0619                     	;# 
   729  0619                     	;# 
   730  061A                     	;# 
   731  061B                     	;# 
   732  061C                     	;# 
   733  061C                     	;# 
   734  0691                     	;# 
   735  0692                     	;# 
   736  0693                     	;# 
   737  0694                     	;# 
   738  0695                     	;# 
   739  0696                     	;# 
   740  0697                     	;# 
   741  0698                     	;# 
   742  0699                     	;# 
   743  0891                     	;# 
   744  0891                     	;# 
   745  0891                     	;# 
   746  0891                     	;# 
   747  0891                     	;# 
   748  0891                     	;# 
   749  0892                     	;# 
   750  0892                     	;# 
   751  0892                     	;# 
   752  0893                     	;# 
   753  0893                     	;# 
   754  0893                     	;# 
   755  0893                     	;# 
   756  0893                     	;# 
   757  0893                     	;# 
   758  0894                     	;# 
   759  0894                     	;# 
   760  0894                     	;# 
   761  0895                     	;# 
   762  0895                     	;# 
   763  0895                     	;# 
   764  0896                     	;# 
   765  0896                     	;# 
   766  0896                     	;# 
   767  089B                     	;# 
   768  0911                     	;# 
   769  0912                     	;# 
   770  0913                     	;# 
   771  0914                     	;# 
   772  0915                     	;# 
   773  0916                     	;# 
   774  0918                     	;# 
   775  0919                     	;# 
   776  091A                     	;# 
   777  091B                     	;# 
   778  091C                     	;# 
   779  091D                     	;# 
   780  091E                     	;# 
   781  091F                     	;# 
   782  0E0F                     	;# 
   783  0E10                     	;# 
   784  0E11                     	;# 
   785  0E12                     	;# 
   786  0E13                     	;# 
   787  0E14                     	;# 
   788  0E15                     	;# 
   789  0E18                     	;# 
   790  0E1A                     	;# 
   791  0E1B                     	;# 
   792  0E1C                     	;# 
   793  0E20                     	;# 
   794  0E21                     	;# 
   795  0E22                     	;# 
   796  0E24                     	;# 
   797  0E25                     	;# 
   798  0E28                     	;# 
   799  0E29                     	;# 
   800  0E2A                     	;# 
   801  0E2B                     	;# 
   802  0E90                     	;# 
   803  0E91                     	;# 
   804  0E92                     	;# 
   805  0E94                     	;# 
   806  0E95                     	;# 
   807  0EA0                     	;# 
   808  0EA1                     	;# 
   809  0EA2                     	;# 
   810  0EA3                     	;# 
   811  0EA4                     	;# 
   812  0EA5                     	;# 
   813  0F0F                     	;# 
   814  0F10                     	;# 
   815  0F11                     	;# 
   816  0F12                     	;# 
   817  0F13                     	;# 
   818  0F14                     	;# 
   819  0F15                     	;# 
   820  0F16                     	;# 
   821  0F17                     	;# 
   822  0F18                     	;# 
   823  0F19                     	;# 
   824  0F1A                     	;# 
   825  0F1B                     	;# 
   826  0F1C                     	;# 
   827  0F1D                     	;# 
   828  0F1E                     	;# 
   829  0F1F                     	;# 
   830  0F20                     	;# 
   831  0F21                     	;# 
   832  0F22                     	;# 
   833  0F23                     	;# 
   834  0FE4                     	;# 
   835  0FE5                     	;# 
   836  0FE6                     	;# 
   837  0FE7                     	;# 
   838  0FE8                     	;# 
   839  0FE9                     	;# 
   840  0FEA                     	;# 
   841  0FEB                     	;# 
   842  0FED                     	;# 
   843  0FEE                     	;# 
   844  0FEF                     	;# 
   845  0000                     	;# 
   846  0001                     	;# 
   847  0002                     	;# 
   848  0003                     	;# 
   849  0004                     	;# 
   850  0005                     	;# 
   851  0006                     	;# 
   852  0007                     	;# 
   853  0008                     	;# 
   854  0009                     	;# 
   855  000A                     	;# 
   856  000B                     	;# 
   857  000C                     	;# 
   858  000E                     	;# 
   859  0010                     	;# 
   860  0011                     	;# 
   861  0012                     	;# 
   862  0013                     	;# 
   863  0014                     	;# 
   864  0015                     	;# 
   865  0015                     	;# 
   866  0016                     	;# 
   867  0016                     	;# 
   868  0017                     	;# 
   869  0018                     	;# 
   870  0019                     	;# 
   871  0019                     	;# 
   872  001A                     	;# 
   873  001B                     	;# 
   874  001C                     	;# 
   875  001D                     	;# 
   876  001E                     	;# 
   877  001F                     	;# 
   878  008C                     	;# 
   879  008E                     	;# 
   880  0090                     	;# 
   881  0091                     	;# 
   882  0092                     	;# 
   883  0093                     	;# 
   884  0094                     	;# 
   885  0097                     	;# 
   886  009B                     	;# 
   887  009B                     	;# 
   888  009C                     	;# 
   889  009D                     	;# 
   890  009E                     	;# 
   891  009F                     	;# 
   892  010C                     	;# 
   893  010E                     	;# 
   894  0111                     	;# 
   895  0112                     	;# 
   896  0113                     	;# 
   897  0114                     	;# 
   898  0115                     	;# 
   899  0116                     	;# 
   900  0117                     	;# 
   901  0118                     	;# 
   902  0119                     	;# 
   903  018C                     	;# 
   904  018E                     	;# 
   905  0197                     	;# 
   906  0199                     	;# 
   907  0199                     	;# 
   908  0199                     	;# 
   909  019A                     	;# 
   910  019A                     	;# 
   911  019A                     	;# 
   912  019B                     	;# 
   913  019B                     	;# 
   914  019B                     	;# 
   915  019B                     	;# 
   916  019B                     	;# 
   917  019C                     	;# 
   918  019C                     	;# 
   919  019C                     	;# 
   920  019D                     	;# 
   921  019D                     	;# 
   922  019D                     	;# 
   923  019E                     	;# 
   924  019E                     	;# 
   925  019E                     	;# 
   926  019F                     	;# 
   927  019F                     	;# 
   928  019F                     	;# 
   929  019F                     	;# 
   930  019F                     	;# 
   931  020C                     	;# 
   932  020E                     	;# 
   933  0211                     	;# 
   934  0211                     	;# 
   935  0212                     	;# 
   936  0212                     	;# 
   937  0213                     	;# 
   938  0213                     	;# 
   939  0214                     	;# 
   940  0214                     	;# 
   941  0215                     	;# 
   942  0215                     	;# 
   943  0215                     	;# 
   944  0215                     	;# 
   945  0216                     	;# 
   946  0216                     	;# 
   947  0217                     	;# 
   948  0217                     	;# 
   949  028C                     	;# 
   950  028E                     	;# 
   951  0291                     	;# 
   952  0291                     	;# 
   953  0292                     	;# 
   954  0293                     	;# 
   955  0294                     	;# 
   956  0295                     	;# 
   957  0295                     	;# 
   958  0296                     	;# 
   959  0297                     	;# 
   960  0298                     	;# 
   961  030C                     	;# 
   962  030E                     	;# 
   963  038C                     	;# 
   964  038E                     	;# 
   965  0391                     	;# 
   966  0392                     	;# 
   967  0393                     	;# 
   968  0397                     	;# 
   969  0398                     	;# 
   970  0399                     	;# 
   971  039A                     	;# 
   972  039C                     	;# 
   973  039D                     	;# 
   974  039E                     	;# 
   975  039F                     	;# 
   976  0498                     	;# 
   977  0498                     	;# 
   978  0499                     	;# 
   979  049A                     	;# 
   980  049B                     	;# 
   981  049B                     	;# 
   982  049C                     	;# 
   983  049D                     	;# 
   984  049E                     	;# 
   985  049F                     	;# 
   986  0617                     	;# 
   987  0618                     	;# 
   988  0619                     	;# 
   989  0619                     	;# 
   990  061A                     	;# 
   991  061B                     	;# 
   992  061C                     	;# 
   993  061C                     	;# 
   994  0691                     	;# 
   995  0692                     	;# 
   996  0693                     	;# 
   997  0694                     	;# 
   998  0695                     	;# 
   999  0696                     	;# 
  1000  0697                     	;# 
  1001  0698                     	;# 
  1002  0699                     	;# 
  1003  0891                     	;# 
  1004  0891                     	;# 
  1005  0891                     	;# 
  1006  0891                     	;# 
  1007  0891                     	;# 
  1008  0891                     	;# 
  1009  0892                     	;# 
  1010  0892                     	;# 
  1011  0892                     	;# 
  1012  0893                     	;# 
  1013  0893                     	;# 
  1014  0893                     	;# 
  1015  0893                     	;# 
  1016  0893                     	;# 
  1017  0893                     	;# 
  1018  0894                     	;# 
  1019  0894                     	;# 
  1020  0894                     	;# 
  1021  0895                     	;# 
  1022  0895                     	;# 
  1023  0895                     	;# 
  1024  0896                     	;# 
  1025  0896                     	;# 
  1026  0896                     	;# 
  1027  089B                     	;# 
  1028  0911                     	;# 
  1029  0912                     	;# 
  1030  0913                     	;# 
  1031  0914                     	;# 
  1032  0915                     	;# 
  1033  0916                     	;# 
  1034  0918                     	;# 
  1035  0919                     	;# 
  1036  091A                     	;# 
  1037  091B                     	;# 
  1038  091C                     	;# 
  1039  091D                     	;# 
  1040  091E                     	;# 
  1041  091F                     	;# 
  1042  0E0F                     	;# 
  1043  0E10                     	;# 
  1044  0E11                     	;# 
  1045  0E12                     	;# 
  1046  0E13                     	;# 
  1047  0E14                     	;# 
  1048  0E15                     	;# 
  1049  0E18                     	;# 
  1050  0E1A                     	;# 
  1051  0E1B                     	;# 
  1052  0E1C                     	;# 
  1053  0E20                     	;# 
  1054  0E21                     	;# 
  1055  0E22                     	;# 
  1056  0E24                     	;# 
  1057  0E25                     	;# 
  1058  0E28                     	;# 
  1059  0E29                     	;# 
  1060  0E2A                     	;# 
  1061  0E2B                     	;# 
  1062  0E90                     	;# 
  1063  0E91                     	;# 
  1064  0E92                     	;# 
  1065  0E94                     	;# 
  1066  0E95                     	;# 
  1067  0EA0                     	;# 
  1068  0EA1                     	;# 
  1069  0EA2                     	;# 
  1070  0EA3                     	;# 
  1071  0EA4                     	;# 
  1072  0EA5                     	;# 
  1073  0F0F                     	;# 
  1074  0F10                     	;# 
  1075  0F11                     	;# 
  1076  0F12                     	;# 
  1077  0F13                     	;# 
  1078  0F14                     	;# 
  1079  0F15                     	;# 
  1080  0F16                     	;# 
  1081  0F17                     	;# 
  1082  0F18                     	;# 
  1083  0F19                     	;# 
  1084  0F1A                     	;# 
  1085  0F1B                     	;# 
  1086  0F1C                     	;# 
  1087  0F1D                     	;# 
  1088  0F1E                     	;# 
  1089  0F1F                     	;# 
  1090  0F20                     	;# 
  1091  0F21                     	;# 
  1092  0F22                     	;# 
  1093  0F23                     	;# 
  1094  0FE4                     	;# 
  1095  0FE5                     	;# 
  1096  0FE6                     	;# 
  1097  0FE7                     	;# 
  1098  0FE8                     	;# 
  1099  0FE9                     	;# 
  1100  0FEA                     	;# 
  1101  0FEB                     	;# 
  1102  0FED                     	;# 
  1103  0FEE                     	;# 
  1104  0FEF                     	;# 
  1105  0000                     	;# 
  1106  0001                     	;# 
  1107  0002                     	;# 
  1108  0003                     	;# 
  1109  0004                     	;# 
  1110  0005                     	;# 
  1111  0006                     	;# 
  1112  0007                     	;# 
  1113  0008                     	;# 
  1114  0009                     	;# 
  1115  000A                     	;# 
  1116  000B                     	;# 
  1117  000C                     	;# 
  1118  000E                     	;# 
  1119  0010                     	;# 
  1120  0011                     	;# 
  1121  0012                     	;# 
  1122  0013                     	;# 
  1123  0014                     	;# 
  1124  0015                     	;# 
  1125  0015                     	;# 
  1126  0016                     	;# 
  1127  0016                     	;# 
  1128  0017                     	;# 
  1129  0018                     	;# 
  1130  0019                     	;# 
  1131  0019                     	;# 
  1132  001A                     	;# 
  1133  001B                     	;# 
  1134  001C                     	;# 
  1135  001D                     	;# 
  1136  001E                     	;# 
  1137  001F                     	;# 
  1138  008C                     	;# 
  1139  008E                     	;# 
  1140  0090                     	;# 
  1141  0091                     	;# 
  1142  0092                     	;# 
  1143  0093                     	;# 
  1144  0094                     	;# 
  1145  0097                     	;# 
  1146  009B                     	;# 
  1147  009B                     	;# 
  1148  009C                     	;# 
  1149  009D                     	;# 
  1150  009E                     	;# 
  1151  009F                     	;# 
  1152  010C                     	;# 
  1153  010E                     	;# 
  1154  0111                     	;# 
  1155  0112                     	;# 
  1156  0113                     	;# 
  1157  0114                     	;# 
  1158  0115                     	;# 
  1159  0116                     	;# 
  1160  0117                     	;# 
  1161  0118                     	;# 
  1162  0119                     	;# 
  1163  018C                     	;# 
  1164  018E                     	;# 
  1165  0197                     	;# 
  1166  0199                     	;# 
  1167  0199                     	;# 
  1168  0199                     	;# 
  1169  019A                     	;# 
  1170  019A                     	;# 
  1171  019A                     	;# 
  1172  019B                     	;# 
  1173  019B                     	;# 
  1174  019B                     	;# 
  1175  019B                     	;# 
  1176  019B                     	;# 
  1177  019C                     	;# 
  1178  019C                     	;# 
  1179  019C                     	;# 
  1180  019D                     	;# 
  1181  019D                     	;# 
  1182  019D                     	;# 
  1183  019E                     	;# 
  1184  019E                     	;# 
  1185  019E                     	;# 
  1186  019F                     	;# 
  1187  019F                     	;# 
  1188  019F                     	;# 
  1189  019F                     	;# 
  1190  019F                     	;# 
  1191  020C                     	;# 
  1192  020E                     	;# 
  1193  0211                     	;# 
  1194  0211                     	;# 
  1195  0212                     	;# 
  1196  0212                     	;# 
  1197  0213                     	;# 
  1198  0213                     	;# 
  1199  0214                     	;# 
  1200  0214                     	;# 
  1201  0215                     	;# 
  1202  0215                     	;# 
  1203  0215                     	;# 
  1204  0215                     	;# 
  1205  0216                     	;# 
  1206  0216                     	;# 
  1207  0217                     	;# 
  1208  0217                     	;# 
  1209  028C                     	;# 
  1210  028E                     	;# 
  1211  0291                     	;# 
  1212  0291                     	;# 
  1213  0292                     	;# 
  1214  0293                     	;# 
  1215  0294                     	;# 
  1216  0295                     	;# 
  1217  0295                     	;# 
  1218  0296                     	;# 
  1219  0297                     	;# 
  1220  0298                     	;# 
  1221  030C                     	;# 
  1222  030E                     	;# 
  1223  038C                     	;# 
  1224  038E                     	;# 
  1225  0391                     	;# 
  1226  0392                     	;# 
  1227  0393                     	;# 
  1228  0397                     	;# 
  1229  0398                     	;# 
  1230  0399                     	;# 
  1231  039A                     	;# 
  1232  039C                     	;# 
  1233  039D                     	;# 
  1234  039E                     	;# 
  1235  039F                     	;# 
  1236  0498                     	;# 
  1237  0498                     	;# 
  1238  0499                     	;# 
  1239  049A                     	;# 
  1240  049B                     	;# 
  1241  049B                     	;# 
  1242  049C                     	;# 
  1243  049D                     	;# 
  1244  049E                     	;# 
  1245  049F                     	;# 
  1246  0617                     	;# 
  1247  0618                     	;# 
  1248  0619                     	;# 
  1249  0619                     	;# 
  1250  061A                     	;# 
  1251  061B                     	;# 
  1252  061C                     	;# 
  1253  061C                     	;# 
  1254  0691                     	;# 
  1255  0692                     	;# 
  1256  0693                     	;# 
  1257  0694                     	;# 
  1258  0695                     	;# 
  1259  0696                     	;# 
  1260  0697                     	;# 
  1261  0698                     	;# 
  1262  0699                     	;# 
  1263  0891                     	;# 
  1264  0891                     	;# 
  1265  0891                     	;# 
  1266  0891                     	;# 
  1267  0891                     	;# 
  1268  0891                     	;# 
  1269  0892                     	;# 
  1270  0892                     	;# 
  1271  0892                     	;# 
  1272  0893                     	;# 
  1273  0893                     	;# 
  1274  0893                     	;# 
  1275  0893                     	;# 
  1276  0893                     	;# 
  1277  0893                     	;# 
  1278  0894                     	;# 
  1279  0894                     	;# 
  1280  0894                     	;# 
  1281  0895                     	;# 
  1282  0895                     	;# 
  1283  0895                     	;# 
  1284  0896                     	;# 
  1285  0896                     	;# 
  1286  0896                     	;# 
  1287  089B                     	;# 
  1288  0911                     	;# 
  1289  0912                     	;# 
  1290  0913                     	;# 
  1291  0914                     	;# 
  1292  0915                     	;# 
  1293  0916                     	;# 
  1294  0918                     	;# 
  1295  0919                     	;# 
  1296  091A                     	;# 
  1297  091B                     	;# 
  1298  091C                     	;# 
  1299  091D                     	;# 
  1300  091E                     	;# 
  1301  091F                     	;# 
  1302  0E0F                     	;# 
  1303  0E10                     	;# 
  1304  0E11                     	;# 
  1305  0E12                     	;# 
  1306  0E13                     	;# 
  1307  0E14                     	;# 
  1308  0E15                     	;# 
  1309  0E18                     	;# 
  1310  0E1A                     	;# 
  1311  0E1B                     	;# 
  1312  0E1C                     	;# 
  1313  0E20                     	;# 
  1314  0E21                     	;# 
  1315  0E22                     	;# 
  1316  0E24                     	;# 
  1317  0E25                     	;# 
  1318  0E28                     	;# 
  1319  0E29                     	;# 
  1320  0E2A                     	;# 
  1321  0E2B                     	;# 
  1322  0E90                     	;# 
  1323  0E91                     	;# 
  1324  0E92                     	;# 
  1325  0E94                     	;# 
  1326  0E95                     	;# 
  1327  0EA0                     	;# 
  1328  0EA1                     	;# 
  1329  0EA2                     	;# 
  1330  0EA3                     	;# 
  1331  0EA4                     	;# 
  1332  0EA5                     	;# 
  1333  0F0F                     	;# 
  1334  0F10                     	;# 
  1335  0F11                     	;# 
  1336  0F12                     	;# 
  1337  0F13                     	;# 
  1338  0F14                     	;# 
  1339  0F15                     	;# 
  1340  0F16                     	;# 
  1341  0F17                     	;# 
  1342  0F18                     	;# 
  1343  0F19                     	;# 
  1344  0F1A                     	;# 
  1345  0F1B                     	;# 
  1346  0F1C                     	;# 
  1347  0F1D                     	;# 
  1348  0F1E                     	;# 
  1349  0F1F                     	;# 
  1350  0F20                     	;# 
  1351  0F21                     	;# 
  1352  0F22                     	;# 
  1353  0F23                     	;# 
  1354  0FE4                     	;# 
  1355  0FE5                     	;# 
  1356  0FE6                     	;# 
  1357  0FE7                     	;# 
  1358  0FE8                     	;# 
  1359  0FE9                     	;# 
  1360  0FEA                     	;# 
  1361  0FEB                     	;# 
  1362  0FED                     	;# 
  1363  0FEE                     	;# 
  1364  0FEF                     	;# 
  1365                           
  1366                           	psect	nvBANK0
  1367  0061                     __pnvBANK0:
  1368  0061                     _device_ID:
  1369  0061                     	ds	1
  1370  0097                     _WDTCON	set	151
  1371  009D                     _ADCON0bits	set	157
  1372  009D                     _ADCON0	set	157
  1373  009C                     _ADRESH	set	156
  1374  009B                     _ADRESL	set	155
  1375  009F                     _ADACT	set	159
  1376  009E                     _ADCON1	set	158
  1377  008E                     _TRISC	set	142
  1378  008C                     _TRISA	set	140
  1379  010E                     _LATC	set	270
  1380  010C                     _LATA	set	268
  1381  018C                     _ANSELA	set	396
  1382  018E                     _ANSELC	set	398
  1383  020E                     _WPUC	set	526
  1384  020C                     _WPUA	set	524
  1385  028E                     _ODCONC	set	654
  1386  028C                     _ODCONA	set	652
  1387  030E                     _SLRCONC	set	782
  1388  030C                     _SLRCONA	set	780
  1389  038E                     _INLVLC	set	910
  1390  038C                     _INLVLA	set	908
  1391  0916                     _PMD5	set	2326
  1392  0915                     _PMD4	set	2325
  1393  0914                     _PMD3	set	2324
  1394  0913                     _PMD2	set	2323
  1395  0912                     _PMD1	set	2322
  1396  0911                     _PMD0	set	2321
  1397  091E                     _OSCTUNE	set	2334
  1398  091F                     _OSCFRQ	set	2335
  1399  091D                     _OSCEN	set	2333
  1400  091B                     _OSCCON3	set	2331
  1401  0919                     _OSCCON1	set	2329
  1402                           
  1403                           	psect	cinit
  1404  07FB                     start_initialization:	
  1405                           ; #config settings
  1406                           
  1407  07FB                     __initialization:
  1408                           
  1409                           ; Clear objects allocated to BANK0
  1410  07FB  0020               	movlb	0	; select bank0
  1411  07FC  01DF               	clrf	__pbssBANK0& (0+127)
  1412  07FD  01E0               	clrf	(__pbssBANK0+1)& (0+127)
  1413  07FE                     end_of_initialization:	
  1414                           ;End of C runtime variable initialization code
  1415                           
  1416  07FE                     __end_of__initialization:
  1417  07FE  0020               	movlb	0
  1418  07FF  2A08               	ljmp	_main	;jump to C main() function
  1419                           
  1420                           	psect	bssBANK0
  1421  005F                     __pbssBANK0:
  1422  005F                     _ADC_InterruptHandler:
  1423  005F                     	ds	2
  1424                           
  1425                           	psect	cstackCOMMON
  1426  0070                     __pcstackCOMMON:
  1427  0070                     ?_PMD_Initialize:
  1428  0070                     ??_PMD_Initialize:	
  1429                           ; 1 bytes @ 0x0
  1430                           
  1431  0070                     ?_OSCILLATOR_Initialize:	
  1432                           ; 1 bytes @ 0x0
  1433                           
  1434  0070                     ??_OSCILLATOR_Initialize:	
  1435                           ; 1 bytes @ 0x0
  1436                           
  1437  0070                     ?_WDT_Initialize:	
  1438                           ; 1 bytes @ 0x0
  1439                           
  1440  0070                     ??_WDT_Initialize:	
  1441                           ; 1 bytes @ 0x0
  1442                           
  1443  0070                     ?_Configure_Device_Id:	
  1444                           ; 1 bytes @ 0x0
  1445                           
  1446  0070                     ?_readTemperatureFromSensor:	
  1447                           ; 1 bytes @ 0x0
  1448                           
  1449  0070                     ?_PIN_MANAGER_Initialize:	
  1450                           ; 1 bytes @ 0x0
  1451                           
  1452  0070                     ??_PIN_MANAGER_Initialize:	
  1453                           ; 1 bytes @ 0x0
  1454                           
  1455  0070                     ?_ADC_Initialize:	
  1456                           ; 1 bytes @ 0x0
  1457                           
  1458  0070                     ??_ADC_Initialize:	
  1459                           ; 1 bytes @ 0x0
  1460                           
  1461  0070                     ?_SYSTEM_Initialize:	
  1462                           ; 1 bytes @ 0x0
  1463                           
  1464  0070                     ??_SYSTEM_Initialize:	
  1465                           ; 1 bytes @ 0x0
  1466                           
  1467  0070                     ?__Umul8_16:	
  1468                           ; 1 bytes @ 0x0
  1469                           
  1470  0070                     ?_ADC_GetConversion:	
  1471                           ; 2 bytes @ 0x0
  1472                           
  1473  0070                     ?_main:	
  1474                           ; 2 bytes @ 0x0
  1475                           
  1476  0070                     ?___xxtofl:	
  1477                           ; 2 bytes @ 0x0
  1478                           
  1479  0070                     __Umul8_16@multiplicand:	
  1480                           ; 4 bytes @ 0x0
  1481                           
  1482  0070                     ___xxtofl@val:	
  1483                           ; 1 bytes @ 0x0
  1484                           
  1485                           
  1486                           ; 4 bytes @ 0x0
  1487  0070                     	ds	2
  1488  0072                     ??__Umul8_16:
  1489  0072                     ??_ADC_GetConversion:	
  1490                           ; 1 bytes @ 0x2
  1491                           
  1492                           
  1493                           ; 1 bytes @ 0x2
  1494  0072                     	ds	1
  1495  0073                     ADC_GetConversion@channel:
  1496                           
  1497                           ; 1 bytes @ 0x3
  1498  0073                     	ds	1
  1499  0074                     ??___xxtofl:
  1500  0074                     ?___lwdiv:	
  1501                           ; 1 bytes @ 0x4
  1502                           
  1503  0074                     ___lwdiv@divisor:	
  1504                           ; 2 bytes @ 0x4
  1505                           
  1506  0074                     __Umul8_16@product:	
  1507                           ; 2 bytes @ 0x4
  1508                           
  1509                           
  1510                           ; 2 bytes @ 0x4
  1511  0074                     	ds	2
  1512  0076                     ___lwdiv@dividend:
  1513  0076                     __Umul8_16@word_mpld:	
  1514                           ; 2 bytes @ 0x6
  1515                           
  1516                           
  1517                           ; 2 bytes @ 0x6
  1518  0076                     	ds	2
  1519  0078                     ??___lwdiv:
  1520  0078                     __Umul8_16@multiplier:	
  1521                           ; 1 bytes @ 0x8
  1522                           
  1523  0078                     ___xxtofl@sign:	
  1524                           ; 1 bytes @ 0x8
  1525                           
  1526                           
  1527                           ; 1 bytes @ 0x8
  1528  0078                     	ds	1
  1529  0079                     ___xxtofl@exp:
  1530  0079                     ___lwdiv@quotient:	
  1531                           ; 1 bytes @ 0x9
  1532                           
  1533                           
  1534                           ; 2 bytes @ 0x9
  1535  0079                     	ds	1
  1536  007A                     ___xxtofl@arg:
  1537                           
  1538                           ; 4 bytes @ 0xA
  1539  007A                     	ds	1
  1540  007B                     ___lwdiv@counter:
  1541                           
  1542                           ; 1 bytes @ 0xB
  1543  007B                     	ds	3
  1544  007E                     ??_readTemperatureFromSensor:
  1545  007E                     ??_calculateTemperatureFromVolatage:	
  1546                           ; 1 bytes @ 0xE
  1547                           
  1548                           
  1549                           	psect	cstackBANK0
  1550  0020                     __pcstackBANK0:	
  1551                           ; 1 bytes @ 0xE
  1552                           
  1553  0020                     ??_Configure_Device_Id:
  1554  0020                     ?___flmul:	
  1555                           ; 1 bytes @ 0x0
  1556                           
  1557  0020                     ___flmul@b:	
  1558                           ; 4 bytes @ 0x0
  1559                           
  1560                           
  1561                           ; 4 bytes @ 0x0
  1562  0020                     	ds	3
  1563  0023                     Configure_Device_Id@C0:
  1564                           
  1565                           ; 1 bytes @ 0x3
  1566  0023                     	ds	1
  1567  0024                     Configure_Device_Id@C1:
  1568  0024                     ___flmul@a:	
  1569                           ; 1 bytes @ 0x4
  1570                           
  1571                           
  1572                           ; 4 bytes @ 0x4
  1573  0024                     	ds	1
  1574  0025                     Configure_Device_Id@C2:
  1575                           
  1576                           ; 1 bytes @ 0x5
  1577  0025                     	ds	3
  1578  0028                     ??___flmul:
  1579                           
  1580                           ; 1 bytes @ 0x8
  1581  0028                     	ds	5
  1582  002D                     ___flmul@sign:
  1583                           
  1584                           ; 1 bytes @ 0xD
  1585  002D                     	ds	1
  1586  002E                     ___flmul@aexp:
  1587                           
  1588                           ; 1 bytes @ 0xE
  1589  002E                     	ds	1
  1590  002F                     ___flmul@grs:
  1591                           
  1592                           ; 4 bytes @ 0xF
  1593  002F                     	ds	4
  1594  0033                     ___flmul@bexp:
  1595                           
  1596                           ; 1 bytes @ 0x13
  1597  0033                     	ds	1
  1598  0034                     ___flmul@prod:
  1599                           
  1600                           ; 4 bytes @ 0x14
  1601  0034                     	ds	4
  1602  0038                     ___flmul@temp:
  1603                           
  1604                           ; 2 bytes @ 0x18
  1605  0038                     	ds	2
  1606  003A                     ?___fladd:
  1607  003A                     ___fladd@b:	
  1608                           ; 4 bytes @ 0x1A
  1609                           
  1610                           
  1611                           ; 4 bytes @ 0x1A
  1612  003A                     	ds	4
  1613  003E                     ___fladd@a:
  1614                           
  1615                           ; 4 bytes @ 0x1E
  1616  003E                     	ds	4
  1617  0042                     ??___fladd:
  1618                           
  1619                           ; 1 bytes @ 0x22
  1620  0042                     	ds	8
  1621  004A                     ___fladd@signs:
  1622                           
  1623                           ; 1 bytes @ 0x2A
  1624  004A                     	ds	1
  1625  004B                     ___fladd@aexp:
  1626                           
  1627                           ; 1 bytes @ 0x2B
  1628  004B                     	ds	1
  1629  004C                     ___fladd@bexp:
  1630                           
  1631                           ; 1 bytes @ 0x2C
  1632  004C                     	ds	1
  1633  004D                     ___fladd@grs:
  1634                           
  1635                           ; 1 bytes @ 0x2D
  1636  004D                     	ds	1
  1637  004E                     ?___fltol:
  1638  004E                     ___fltol@f1:	
  1639                           ; 4 bytes @ 0x2E
  1640                           
  1641                           
  1642                           ; 4 bytes @ 0x2E
  1643  004E                     	ds	4
  1644  0052                     ??___fltol:
  1645                           
  1646                           ; 1 bytes @ 0x32
  1647  0052                     	ds	5
  1648  0057                     ___fltol@sign1:
  1649                           
  1650                           ; 1 bytes @ 0x37
  1651  0057                     	ds	1
  1652  0058                     ___fltol@exp1:
  1653                           
  1654                           ; 1 bytes @ 0x38
  1655  0058                     	ds	1
  1656  0059                     ?_calculateTemperatureFromVolatage:
  1657  0059                     calculateTemperatureFromVolatage@vol:	
  1658                           ; 1 bytes @ 0x39
  1659                           
  1660                           
  1661                           ; 2 bytes @ 0x39
  1662  0059                     	ds	2
  1663  005B                     readTemperatureFromSensor@voltage:
  1664                           
  1665                           ; 2 bytes @ 0x3B
  1666  005B                     	ds	2
  1667  005D                     ??_main:
  1668                           
  1669                           ; 1 bytes @ 0x3D
  1670  005D                     	ds	2
  1671                           
  1672                           	psect	maintext
  1673  0208                     __pmaintext:	
  1674 ;;
  1675 ;;Main: autosize = 0, tempsize = 2, incstack = 0, save=0
  1676 ;;
  1677 ;; *************** function _main *****************
  1678 ;; Defined at:
  1679 ;;		line 59 in file "main.c"
  1680 ;; Parameters:    Size  Location     Type
  1681 ;;		None
  1682 ;; Auto vars:     Size  Location     Type
  1683 ;;  temp            1    0        unsigned char 
  1684 ;; Return value:  Size  Location     Type
  1685 ;;                  2  142[None  ] int 
  1686 ;; Registers used:
  1687 ;;		wreg, status,2, status,0, pclath, cstack
  1688 ;; Tracked objects:
  1689 ;;		On entry : B1F/0
  1690 ;;		On exit  : 1F/0
  1691 ;;		Unchanged: 0/0
  1692 ;; Data sizes:     COMMON   BANK0   BANK1   BANK2
  1693 ;;      Params:         0       0       0       0
  1694 ;;      Locals:         0       0       0       0
  1695 ;;      Temps:          0       2       0       0
  1696 ;;      Totals:         0       2       0       0
  1697 ;;Total ram usage:        2 bytes
  1698 ;; Hardware stack levels required when called: 4
  1699 ;; This function calls:
  1700 ;;		_ADC_Initialize
  1701 ;;		_Configure_Device_Id
  1702 ;;		_SYSTEM_Initialize
  1703 ;;		_readTemperatureFromSensor
  1704 ;; This function is called by:
  1705 ;;		Startup code after reset
  1706 ;; This function uses a non-reentrant model
  1707 ;;
  1708                           
  1709  0208                     _main:	
  1710                           ;psect for function _main
  1711                           
  1712                           
  1713                           ;main.c: 62:     SYSTEM_Initialize();
  1714                           
  1715                           ;incstack = 0
  1716                           ; Regs used in _main: [wreg+status,2+status,0+pclath+cstack]
  1717  0208  21DC               	fcall	_SYSTEM_Initialize
  1718                           
  1719                           ;main.c: 64:     ADC_Initialize();
  1720  0209  21E2               	fcall	_ADC_Initialize
  1721                           
  1722                           ;main.c: 66:     Configure_Device_Id();
  1723  020A  22D6               	fcall	_Configure_Device_Id
  1724  020B                     l1785:
  1725                           
  1726                           ;main.c: 83:         _delay((unsigned long)((3000)*(1000000/4000.0)));
  1727  020B  3004               	movlw	4
  1728  020C  0020               	movlb	0	; select bank0
  1729  020D  00DE               	movwf	??_main+1
  1730  020E  30CF               	movlw	207
  1731  020F  00DD               	movwf	??_main
  1732  0210  3001               	movlw	1
  1733  0211                     u2117:
  1734  0211  0B89               	decfsz	9,f
  1735  0212  2A11               	goto	u2117
  1736  0213  0BDD               	decfsz	??_main,f
  1737  0214  2A11               	goto	u2117
  1738  0215  0BDE               	decfsz	??_main+1,f
  1739  0216  2A11               	goto	u2117
  1740  0217  3200               	nop2
  1741  0218  21FB               	fcall	_readTemperatureFromSensor
  1742  0219  2A0B               	goto	l1785
  1743  021A                     __end_of_main:
  1744                           
  1745                           	psect	text1
  1746  01FB                     __ptext1:	
  1747 ;; *************** function _readTemperatureFromSensor *****************
  1748 ;; Defined at:
  1749 ;;		line 101 in file "main.c"
  1750 ;; Parameters:    Size  Location     Type
  1751 ;;		None
  1752 ;; Auto vars:     Size  Location     Type
  1753 ;;  voltage         2   59[BANK0 ] unsigned short 
  1754 ;; Return value:  Size  Location     Type
  1755 ;;                  1    wreg      unsigned char 
  1756 ;; Registers used:
  1757 ;;		wreg, status,2, status,0, pclath, cstack
  1758 ;; Tracked objects:
  1759 ;;		On entry : 0/0
  1760 ;;		On exit  : 1F/0
  1761 ;;		Unchanged: 0/0
  1762 ;; Data sizes:     COMMON   BANK0   BANK1   BANK2
  1763 ;;      Params:         0       0       0       0
  1764 ;;      Locals:         0       2       0       0
  1765 ;;      Temps:          0       0       0       0
  1766 ;;      Totals:         0       2       0       0
  1767 ;;Total ram usage:        2 bytes
  1768 ;; Hardware stack levels used: 1
  1769 ;; Hardware stack levels required when called: 3
  1770 ;; This function calls:
  1771 ;;		_ADC_GetConversion
  1772 ;;		_calculateTemperatureFromVolatage
  1773 ;; This function is called by:
  1774 ;;		_main
  1775 ;; This function uses a non-reentrant model
  1776 ;;
  1777                           
  1778  01FB                     _readTemperatureFromSensor:	
  1779                           ;psect for function _readTemperatureFromSensor
  1780                           
  1781                           
  1782                           ;main.c: 102:     uint16_t voltage = ADC_GetConversion(Temp_Sensor);
  1783                           
  1784                           ;incstack = 0
  1785                           ; Regs used in _readTemperatureFromSensor: [wreg+status,2+status,0+pclath+cstack]
  1786  01FB  3013               	movlw	19
  1787  01FC  221A               	fcall	_ADC_GetConversion
  1788  01FD  0871               	movf	?_ADC_GetConversion+1,w
  1789  01FE  0020               	movlb	0	; select bank0
  1790  01FF  00DC               	movwf	readTemperatureFromSensor@voltage+1
  1791  0200  0870               	movf	?_ADC_GetConversion,w
  1792  0201  00DB               	movwf	readTemperatureFromSensor@voltage
  1793                           
  1794                           ;main.c: 104:     return calculateTemperatureFromVolatage(voltage);
  1795  0202  085C               	movf	readTemperatureFromSensor@voltage+1,w
  1796  0203  00DA               	movwf	calculateTemperatureFromVolatage@vol+1
  1797  0204  085B               	movf	readTemperatureFromSensor@voltage,w
  1798  0205  00D9               	movwf	calculateTemperatureFromVolatage@vol
  1799  0206  22A1               	fcall	_calculateTemperatureFromVolatage
  1800  0207  0008               	return
  1801  0208                     __end_of_readTemperatureFromSensor:
  1802                           
  1803                           	psect	text2
  1804  02A1                     __ptext2:	
  1805 ;; *************** function _calculateTemperatureFromVolatage *****************
  1806 ;; Defined at:
  1807 ;;		line 107 in file "main.c"
  1808 ;; Parameters:    Size  Location     Type
  1809 ;;  vol             2   57[BANK0 ] unsigned short 
  1810 ;; Auto vars:     Size  Location     Type
  1811 ;;		None
  1812 ;; Return value:  Size  Location     Type
  1813 ;;                  1    wreg      unsigned char 
  1814 ;; Registers used:
  1815 ;;		wreg, status,2, status,0, pclath, cstack
  1816 ;; Tracked objects:
  1817 ;;		On entry : 1F/0
  1818 ;;		On exit  : 1F/0
  1819 ;;		Unchanged: 0/0
  1820 ;; Data sizes:     COMMON   BANK0   BANK1   BANK2
  1821 ;;      Params:         0       2       0       0
  1822 ;;      Locals:         0       0       0       0
  1823 ;;      Temps:          0       0       0       0
  1824 ;;      Totals:         0       2       0       0
  1825 ;;Total ram usage:        2 bytes
  1826 ;; Hardware stack levels used: 1
  1827 ;; Hardware stack levels required when called: 2
  1828 ;; This function calls:
  1829 ;;		___fladd
  1830 ;;		___flmul
  1831 ;;		___fltol
  1832 ;;		___xxtofl
  1833 ;; This function is called by:
  1834 ;;		_readTemperatureFromSensor
  1835 ;; This function uses a non-reentrant model
  1836 ;;
  1837                           
  1838  02A1                     _calculateTemperatureFromVolatage:	
  1839                           ;psect for function _calculateTemperatureFromVolatage
  1840                           
  1841                           
  1842                           ;main.c: 109:     return -0.0991*vol + 76.782;
  1843                           
  1844                           ;incstack = 0
  1845                           ; Regs used in _calculateTemperatureFromVolatage: [wreg+status,2+status,0+pclath+cstack]
  1846  02A1  0859               	movf	calculateTemperatureFromVolatage@vol,w
  1847  02A2  00F0               	movwf	___xxtofl@val
  1848  02A3  085A               	movf	calculateTemperatureFromVolatage@vol+1,w
  1849  02A4  00F1               	movwf	___xxtofl@val+1
  1850  02A5  01F2               	clrf	___xxtofl@val+2
  1851  02A6  01F3               	clrf	___xxtofl@val+3
  1852  02A7  3000               	movlw	0
  1853  02A8  237F               	fcall	___xxtofl
  1854  02A9  0873               	movf	?___xxtofl+3,w
  1855  02AA  00A7               	movwf	___flmul@a+3
  1856  02AB  0872               	movf	?___xxtofl+2,w
  1857  02AC  00A6               	movwf	___flmul@a+2
  1858  02AD  0871               	movf	?___xxtofl+1,w
  1859  02AE  00A5               	movwf	___flmul@a+1
  1860  02AF  0870               	movf	?___xxtofl,w
  1861  02B0  00A4               	movwf	___flmul@a
  1862  02B1  30BD               	movlw	189
  1863  02B2  00A3               	movwf	___flmul@b+3
  1864  02B3  30CA               	movlw	202
  1865  02B4  00A2               	movwf	___flmul@b+2
  1866  02B5  30F4               	movlw	244
  1867  02B6  00A1               	movwf	___flmul@b+1
  1868  02B7  30F1               	movlw	241
  1869  02B8  00A0               	movwf	___flmul@b
  1870  02B9  25F5               	fcall	___flmul
  1871  02BA  0823               	movf	?___flmul+3,w
  1872  02BB  00C1               	movwf	___fladd@a+3
  1873  02BC  0822               	movf	?___flmul+2,w
  1874  02BD  00C0               	movwf	___fladd@a+2
  1875  02BE  0821               	movf	?___flmul+1,w
  1876  02BF  00BF               	movwf	___fladd@a+1
  1877  02C0  0820               	movf	?___flmul,w
  1878  02C1  00BE               	movwf	___fladd@a
  1879  02C2  3042               	movlw	66
  1880  02C3  00BD               	movwf	___fladd@b+3
  1881  02C4  3099               	movlw	153
  1882  02C5  00BC               	movwf	___fladd@b+2
  1883  02C6  3090               	movlw	144
  1884  02C7  00BB               	movwf	___fladd@b+1
  1885  02C8  3062               	movlw	98
  1886  02C9  00BA               	movwf	___fladd@b
  1887  02CA  2414               	fcall	___fladd
  1888  02CB  083D               	movf	?___fladd+3,w
  1889  02CC  00D1               	movwf	___fltol@f1+3
  1890  02CD  083C               	movf	?___fladd+2,w
  1891  02CE  00D0               	movwf	___fltol@f1+2
  1892  02CF  083B               	movf	?___fladd+1,w
  1893  02D0  00CF               	movwf	___fltol@f1+1
  1894  02D1  083A               	movf	?___fladd,w
  1895  02D2  00CE               	movwf	___fltol@f1
  1896  02D3  231A               	fcall	___fltol
  1897  02D4  084E               	movf	?___fltol,w
  1898  02D5  0008               	return
  1899  02D6                     __end_of_calculateTemperatureFromVolatage:
  1900                           
  1901                           	psect	text3
  1902  037F                     __ptext3:	
  1903 ;; *************** function ___xxtofl *****************
  1904 ;; Defined at:
  1905 ;;		line 10 in file "D:\Softwares\Microchip\xc8\v2.36\pic\sources\c99\common\xxtofl.c"
  1906 ;; Parameters:    Size  Location     Type
  1907 ;;  sign            1    wreg     unsigned char 
  1908 ;;  val             4    0[COMMON] long 
  1909 ;; Auto vars:     Size  Location     Type
  1910 ;;  sign            1    8[COMMON] unsigned char 
  1911 ;;  arg             4   10[COMMON] unsigned long 
  1912 ;;  exp             1    9[COMMON] unsigned char 
  1913 ;; Return value:  Size  Location     Type
  1914 ;;                  4    0[COMMON] unsigned char 
  1915 ;; Registers used:
  1916 ;;		wreg, status,2, status,0
  1917 ;; Tracked objects:
  1918 ;;		On entry : 1F/0
  1919 ;;		On exit  : 1F/0
  1920 ;;		Unchanged: 1F/0
  1921 ;; Data sizes:     COMMON   BANK0   BANK1   BANK2
  1922 ;;      Params:         4       0       0       0
  1923 ;;      Locals:         6       0       0       0
  1924 ;;      Temps:          4       0       0       0
  1925 ;;      Totals:        14       0       0       0
  1926 ;;Total ram usage:       14 bytes
  1927 ;; Hardware stack levels used: 1
  1928 ;; This function calls:
  1929 ;;		Nothing
  1930 ;; This function is called by:
  1931 ;;		_calculateTemperatureFromVolatage
  1932 ;; This function uses a non-reentrant model
  1933 ;;
  1934                           
  1935  037F                     ___xxtofl:	
  1936                           ;psect for function ___xxtofl
  1937                           
  1938                           
  1939                           ;incstack = 0
  1940                           ; Regs used in ___xxtofl: [wreg+status,2+status,0]
  1941                           ;___xxtofl@sign stored from wreg
  1942  037F  00F8               	movwf	___xxtofl@sign
  1943  0380  0878               	movf	___xxtofl@sign,w
  1944  0381  1D03               	btfss	3,2
  1945  0382  1FF3               	btfss	___xxtofl@val+3,7
  1946  0383  2B94               	goto	l1695
  1947  0384  0970               	comf	___xxtofl@val,w
  1948  0385  00FA               	movwf	___xxtofl@arg
  1949  0386  0971               	comf	___xxtofl@val+1,w
  1950  0387  00FB               	movwf	___xxtofl@arg+1
  1951  0388  0972               	comf	___xxtofl@val+2,w
  1952  0389  00FC               	movwf	___xxtofl@arg+2
  1953  038A  0973               	comf	___xxtofl@val+3,w
  1954  038B  00FD               	movwf	___xxtofl@arg+3
  1955  038C  0AFA               	incf	___xxtofl@arg,f
  1956  038D  1903               	skipnz
  1957  038E  0AFB               	incf	___xxtofl@arg+1,f
  1958  038F  1903               	skipnz
  1959  0390  0AFC               	incf	___xxtofl@arg+2,f
  1960  0391  1903               	skipnz
  1961  0392  0AFD               	incf	___xxtofl@arg+3,f
  1962  0393  2B9C               	goto	l754
  1963  0394                     l1695:
  1964  0394  0873               	movf	___xxtofl@val+3,w
  1965  0395  00FD               	movwf	___xxtofl@arg+3
  1966  0396  0872               	movf	___xxtofl@val+2,w
  1967  0397  00FC               	movwf	___xxtofl@arg+2
  1968  0398  0871               	movf	___xxtofl@val+1,w
  1969  0399  00FB               	movwf	___xxtofl@arg+1
  1970  039A  0870               	movf	___xxtofl@val,w
  1971  039B  00FA               	movwf	___xxtofl@arg
  1972  039C                     l754:
  1973  039C  0873               	movf	___xxtofl@val+3,w
  1974  039D  0472               	iorwf	___xxtofl@val+2,w
  1975  039E  0471               	iorwf	___xxtofl@val+1,w
  1976  039F  0470               	iorwf	___xxtofl@val,w
  1977  03A0  1D03               	skipz
  1978  03A1  2BAB               	goto	l1701
  1979  03A2  3000               	movlw	0
  1980  03A3  00F3               	movwf	?___xxtofl+3
  1981  03A4  3000               	movlw	0
  1982  03A5  00F2               	movwf	?___xxtofl+2
  1983  03A6  3000               	movlw	0
  1984  03A7  00F1               	movwf	?___xxtofl+1
  1985  03A8  3000               	movlw	0
  1986  03A9  00F0               	movwf	?___xxtofl
  1987  03AA  0008               	return
  1988  03AB                     l1701:
  1989  03AB  3096               	movlw	150
  1990  03AC  00F4               	movwf	??___xxtofl
  1991  03AD  0874               	movf	??___xxtofl,w
  1992  03AE  00F9               	movwf	___xxtofl@exp
  1993  03AF                     l1705:
  1994  03AF  30FE               	movlw	254
  1995  03B0  057D               	andwf	___xxtofl@arg+3,w
  1996  03B1  1903               	btfsc	3,2
  1997  03B2  2BD2               	goto	l760
  1998  03B3  3001               	movlw	1
  1999  03B4  00F4               	movwf	??___xxtofl
  2000  03B5  0874               	movf	??___xxtofl,w
  2001  03B6  07F9               	addwf	___xxtofl@exp,f
  2002  03B7  3001               	movlw	1
  2003  03B8                     u1905:
  2004  03B8  36FD               	lsrf	___xxtofl@arg+3,f
  2005  03B9  0CFC               	rrf	___xxtofl@arg+2,f
  2006  03BA  0CFB               	rrf	___xxtofl@arg+1,f
  2007  03BB  0CFA               	rrf	___xxtofl@arg,f
  2008  03BC  0B89               	decfsz	9,f
  2009  03BD  2BB8               	goto	u1905
  2010  03BE  2BAF               	goto	l1705
  2011  03BF                     l1707:
  2012  03BF  3001               	movlw	1
  2013  03C0  00F4               	movwf	??___xxtofl
  2014  03C1  0874               	movf	??___xxtofl,w
  2015  03C2  07F9               	addwf	___xxtofl@exp,f
  2016  03C3  3001               	movlw	1
  2017  03C4  07FA               	addwf	___xxtofl@arg,f
  2018  03C5  3000               	movlw	0
  2019  03C6  3DFB               	addwfc	___xxtofl@arg+1,f
  2020  03C7  3000               	movlw	0
  2021  03C8  3DFC               	addwfc	___xxtofl@arg+2,f
  2022  03C9  3000               	movlw	0
  2023  03CA  3DFD               	addwfc	___xxtofl@arg+3,f
  2024  03CB  3001               	movlw	1
  2025  03CC                     u1925:
  2026  03CC  36FD               	lsrf	___xxtofl@arg+3,f
  2027  03CD  0CFC               	rrf	___xxtofl@arg+2,f
  2028  03CE  0CFB               	rrf	___xxtofl@arg+1,f
  2029  03CF  0CFA               	rrf	___xxtofl@arg,f
  2030  03D0  0B89               	decfsz	9,f
  2031  03D1  2BCC               	goto	u1925
  2032  03D2                     l760:
  2033  03D2  30FF               	movlw	255
  2034  03D3  057D               	andwf	___xxtofl@arg+3,w
  2035  03D4  1903               	btfsc	3,2
  2036  03D5  2BE4               	goto	l1715
  2037  03D6  2BBF               	goto	l1707
  2038  03D7                     l1717:
  2039  03D7  3002               	movlw	2
  2040  03D8  0279               	subwf	___xxtofl@exp,w
  2041  03D9  1C03               	btfss	3,0
  2042  03DA  2BE6               	goto	l767
  2043  03DB  3001               	movlw	1
  2044  03DC  02F9               	subwf	___xxtofl@exp,f
  2045  03DD  3001               	movlw	1
  2046  03DE                     u1945:
  2047  03DE  35FA               	lslf	___xxtofl@arg,f
  2048  03DF  0DFB               	rlf	___xxtofl@arg+1,f
  2049  03E0  0DFC               	rlf	___xxtofl@arg+2,f
  2050  03E1  0DFD               	rlf	___xxtofl@arg+3,f
  2051  03E2  0B89               	decfsz	9,f
  2052  03E3  2BDE               	goto	u1945
  2053  03E4                     l1715:
  2054  03E4  1FFC               	btfss	___xxtofl@arg+2,7
  2055  03E5  2BD7               	goto	l1717
  2056  03E6                     l767:
  2057  03E6  1879               	btfsc	___xxtofl@exp,0
  2058  03E7  2BF0               	goto	l768
  2059  03E8  30FF               	movlw	255
  2060  03E9  05FA               	andwf	___xxtofl@arg,f
  2061  03EA  30FF               	movlw	255
  2062  03EB  05FB               	andwf	___xxtofl@arg+1,f
  2063  03EC  307F               	movlw	127
  2064  03ED  05FC               	andwf	___xxtofl@arg+2,f
  2065  03EE  30FF               	movlw	255
  2066  03EF  05FD               	andwf	___xxtofl@arg+3,f
  2067  03F0                     l768:
  2068  03F0  1003               	clrc
  2069  03F1  0CF9               	rrf	___xxtofl@exp,f
  2070  03F2  0879               	movf	___xxtofl@exp,w
  2071  03F3  00F4               	movwf	??___xxtofl
  2072  03F4  01F5               	clrf	??___xxtofl+1
  2073  03F5  01F6               	clrf	??___xxtofl+2
  2074  03F6  01F7               	clrf	??___xxtofl+3
  2075  03F7  3018               	movlw	24
  2076  03F8                     u1985:
  2077  03F8  35F4               	lslf	??___xxtofl,f
  2078  03F9  0DF5               	rlf	??___xxtofl+1,f
  2079  03FA  0DF6               	rlf	??___xxtofl+2,f
  2080  03FB  0DF7               	rlf	??___xxtofl+3,f
  2081  03FC  0B89               	decfsz	9,f
  2082  03FD  2BF8               	goto	u1985
  2083  03FE  0874               	movf	??___xxtofl,w
  2084  03FF  04FA               	iorwf	___xxtofl@arg,f
  2085  0400  0875               	movf	??___xxtofl+1,w
  2086  0401  04FB               	iorwf	___xxtofl@arg+1,f
  2087  0402  0876               	movf	??___xxtofl+2,w
  2088  0403  04FC               	iorwf	___xxtofl@arg+2,f
  2089  0404  0877               	movf	??___xxtofl+3,w
  2090  0405  04FD               	iorwf	___xxtofl@arg+3,f
  2091  0406  0878               	movf	___xxtofl@sign,w
  2092  0407  1D03               	btfss	3,2
  2093  0408  1FF3               	btfss	___xxtofl@val+3,7
  2094  0409  2C0B               	goto	l1729
  2095  040A  17FD               	bsf	___xxtofl@arg+3,7
  2096  040B                     l1729:
  2097  040B  087D               	movf	___xxtofl@arg+3,w
  2098  040C  00F3               	movwf	?___xxtofl+3
  2099  040D  087C               	movf	___xxtofl@arg+2,w
  2100  040E  00F2               	movwf	?___xxtofl+2
  2101  040F  087B               	movf	___xxtofl@arg+1,w
  2102  0410  00F1               	movwf	?___xxtofl+1
  2103  0411  087A               	movf	___xxtofl@arg,w
  2104  0412  00F0               	movwf	?___xxtofl
  2105  0413  0008               	return
  2106  0414                     __end_of___xxtofl:
  2107                           
  2108                           	psect	text4
  2109  031A                     __ptext4:	
  2110 ;; *************** function ___fltol *****************
  2111 ;; Defined at:
  2112 ;;		line 43 in file "D:\Softwares\Microchip\xc8\v2.36\pic\sources\c99\common\fltol.c"
  2113 ;; Parameters:    Size  Location     Type
  2114 ;;  f1              4   46[BANK0 ] unsigned char 
  2115 ;; Auto vars:     Size  Location     Type
  2116 ;;  exp1            1   56[BANK0 ] unsigned char 
  2117 ;;  sign1           1   55[BANK0 ] unsigned char 
  2118 ;; Return value:  Size  Location     Type
  2119 ;;                  4   46[BANK0 ] long 
  2120 ;; Registers used:
  2121 ;;		wreg, status,2, status,0
  2122 ;; Tracked objects:
  2123 ;;		On entry : 1F/0
  2124 ;;		On exit  : 1F/0
  2125 ;;		Unchanged: 0/0
  2126 ;; Data sizes:     COMMON   BANK0   BANK1   BANK2
  2127 ;;      Params:         0       4       0       0
  2128 ;;      Locals:         0       2       0       0
  2129 ;;      Temps:          0       5       0       0
  2130 ;;      Totals:         0      11       0       0
  2131 ;;Total ram usage:       11 bytes
  2132 ;; Hardware stack levels used: 1
  2133 ;; This function calls:
  2134 ;;		Nothing
  2135 ;; This function is called by:
  2136 ;;		_calculateTemperatureFromVolatage
  2137 ;; This function uses a non-reentrant model
  2138 ;;
  2139                           
  2140  031A                     ___fltol:	
  2141                           ;psect for function ___fltol
  2142                           
  2143                           
  2144                           ;incstack = 0
  2145                           ; Regs used in ___fltol: [wreg+status,2+status,0]
  2146  031A  1003               	clrc
  2147  031B  0D50               	rlf	___fltol@f1+2,w
  2148  031C  0D51               	rlf	___fltol@f1+3,w
  2149  031D  00D2               	movwf	??___fltol
  2150  031E  0852               	movf	??___fltol,w
  2151  031F  00D8               	movwf	___fltol@exp1
  2152  0320  0858               	movf	___fltol@exp1,w
  2153  0321  1D03               	btfss	3,2
  2154  0322  2B2C               	goto	l1325
  2155  0323                     l1321:
  2156  0323  3000               	movlw	0
  2157  0324  00D1               	movwf	?___fltol+3
  2158  0325  3000               	movlw	0
  2159  0326  00D0               	movwf	?___fltol+2
  2160  0327  3000               	movlw	0
  2161  0328  00CF               	movwf	?___fltol+1
  2162  0329  3000               	movlw	0
  2163  032A  00CE               	movwf	?___fltol
  2164  032B  0008               	return
  2165  032C                     l1325:
  2166  032C  084E               	movf	___fltol@f1,w
  2167  032D  00D2               	movwf	??___fltol
  2168  032E  084F               	movf	___fltol@f1+1,w
  2169  032F  00D3               	movwf	??___fltol+1
  2170  0330  0850               	movf	___fltol@f1+2,w
  2171  0331  00D4               	movwf	??___fltol+2
  2172  0332  0851               	movf	___fltol@f1+3,w
  2173  0333  00D5               	movwf	??___fltol+3
  2174  0334  301F               	movlw	31
  2175  0335                     u1105:
  2176  0335  36D5               	lsrf	??___fltol+3,f
  2177  0336  0CD4               	rrf	??___fltol+2,f
  2178  0337  0CD3               	rrf	??___fltol+1,f
  2179  0338  0CD2               	rrf	??___fltol,f
  2180  0339  0B89               	decfsz	9,f
  2181  033A  2B35               	goto	u1105
  2182  033B  0852               	movf	??___fltol,w
  2183  033C  00D6               	movwf	??___fltol+4
  2184  033D  0856               	movf	??___fltol+4,w
  2185  033E  00D7               	movwf	___fltol@sign1
  2186  033F  17D0               	bsf	___fltol@f1+2,7
  2187  0340  30FF               	movlw	255
  2188  0341  05CE               	andwf	___fltol@f1,f
  2189  0342  30FF               	movlw	255
  2190  0343  05CF               	andwf	___fltol@f1+1,f
  2191  0344  30FF               	movlw	255
  2192  0345  05D0               	andwf	___fltol@f1+2,f
  2193  0346  3000               	movlw	0
  2194  0347  05D1               	andwf	___fltol@f1+3,f
  2195  0348  3096               	movlw	150
  2196  0349  02D8               	subwf	___fltol@exp1,f
  2197  034A  1FD8               	btfss	___fltol@exp1,7
  2198  034B  2B5F               	goto	l1343
  2199  034C  0858               	movf	___fltol@exp1,w
  2200  034D  3A80               	xorlw	128
  2201  034E  3E97               	addlw	151
  2202  034F  1C03               	btfss	3,0
  2203  0350  2B23               	goto	l1321
  2204  0351                     l1341:
  2205  0351  3001               	movlw	1
  2206  0352                     u1135:
  2207  0352  36D1               	lsrf	___fltol@f1+3,f
  2208  0353  0CD0               	rrf	___fltol@f1+2,f
  2209  0354  0CCF               	rrf	___fltol@f1+1,f
  2210  0355  0CCE               	rrf	___fltol@f1,f
  2211  0356  0B89               	decfsz	9,f
  2212  0357  2B52               	goto	u1135
  2213  0358  3001               	movlw	1
  2214  0359  00D2               	movwf	??___fltol
  2215  035A  0852               	movf	??___fltol,w
  2216  035B  07D8               	addwf	___fltol@exp1,f
  2217  035C  1903               	btfsc	3,2
  2218  035D  2B70               	goto	l1351
  2219  035E  2B51               	goto	l1341
  2220  035F                     l1343:
  2221  035F  3020               	movlw	32
  2222  0360  0258               	subwf	___fltol@exp1,w
  2223  0361  1803               	btfsc	3,0
  2224  0362  2B23               	goto	l1321
  2225  0363                     l514:
  2226  0363  0858               	movf	___fltol@exp1,w
  2227  0364  1903               	btfsc	3,2
  2228  0365  2B70               	goto	l1351
  2229  0366  3001               	movlw	1
  2230  0367                     u1165:
  2231  0367  35CE               	lslf	___fltol@f1,f
  2232  0368  0DCF               	rlf	___fltol@f1+1,f
  2233  0369  0DD0               	rlf	___fltol@f1+2,f
  2234  036A  0DD1               	rlf	___fltol@f1+3,f
  2235  036B  0B89               	decfsz	9,f
  2236  036C  2B67               	goto	u1165
  2237  036D  3001               	movlw	1
  2238  036E  02D8               	subwf	___fltol@exp1,f
  2239  036F  2B63               	goto	l514
  2240  0370                     l1351:
  2241  0370  0857               	movf	___fltol@sign1,w
  2242  0371  1903               	btfsc	3,2
  2243  0372  0008               	return
  2244  0373  09CE               	comf	___fltol@f1,f
  2245  0374  09CF               	comf	___fltol@f1+1,f
  2246  0375  09D0               	comf	___fltol@f1+2,f
  2247  0376  09D1               	comf	___fltol@f1+3,f
  2248  0377  0ACE               	incf	___fltol@f1,f
  2249  0378  1903               	skipnz
  2250  0379  0ACF               	incf	___fltol@f1+1,f
  2251  037A  1903               	skipnz
  2252  037B  0AD0               	incf	___fltol@f1+2,f
  2253  037C  1903               	skipnz
  2254  037D  0AD1               	incf	___fltol@f1+3,f
  2255  037E  0008               	return
  2256  037F                     __end_of___fltol:
  2257                           
  2258                           	psect	text5
  2259  05F5                     __ptext5:	
  2260 ;; *************** function ___flmul *****************
  2261 ;; Defined at:
  2262 ;;		line 8 in file "D:\Softwares\Microchip\xc8\v2.36\pic\sources\c99\common\sprcmul.c"
  2263 ;; Parameters:    Size  Location     Type
  2264 ;;  b               4    0[BANK0 ] long 
  2265 ;;  a               4    4[BANK0 ] long 
  2266 ;; Auto vars:     Size  Location     Type
  2267 ;;  prod            4   20[BANK0 ] struct .
  2268 ;;  grs             4   15[BANK0 ] unsigned long 
  2269 ;;  temp            2   24[BANK0 ] struct .
  2270 ;;  bexp            1   19[BANK0 ] unsigned char 
  2271 ;;  aexp            1   14[BANK0 ] unsigned char 
  2272 ;;  sign            1   13[BANK0 ] unsigned char 
  2273 ;; Return value:  Size  Location     Type
  2274 ;;                  4    0[BANK0 ] unsigned char 
  2275 ;; Registers used:
  2276 ;;		wreg, status,2, status,0, pclath, cstack
  2277 ;; Tracked objects:
  2278 ;;		On entry : 1F/0
  2279 ;;		On exit  : 1F/0
  2280 ;;		Unchanged: 0/0
  2281 ;; Data sizes:     COMMON   BANK0   BANK1   BANK2
  2282 ;;      Params:         0       8       0       0
  2283 ;;      Locals:         0      13       0       0
  2284 ;;      Temps:          0       5       0       0
  2285 ;;      Totals:         0      26       0       0
  2286 ;;Total ram usage:       26 bytes
  2287 ;; Hardware stack levels used: 1
  2288 ;; Hardware stack levels required when called: 1
  2289 ;; This function calls:
  2290 ;;		__Umul8_16
  2291 ;; This function is called by:
  2292 ;;		_calculateTemperatureFromVolatage
  2293 ;; This function uses a non-reentrant model
  2294 ;;
  2295                           
  2296  05F5                     ___flmul:	
  2297                           ;psect for function ___flmul
  2298                           
  2299                           
  2300                           ;incstack = 0
  2301                           ; Regs used in ___flmul: [wreg+status,2+status,0+pclath+cstack]
  2302  05F5  0823               	movf	___flmul@b+3,w
  2303  05F6  3980               	andlw	128
  2304  05F7  00A8               	movwf	??___flmul
  2305  05F8  0828               	movf	??___flmul,w
  2306  05F9  00AD               	movwf	___flmul@sign
  2307  05FA  3523               	lslf	___flmul@b+3,w
  2308  05FB  00A8               	movwf	??___flmul
  2309  05FC  0828               	movf	??___flmul,w
  2310  05FD  00B3               	movwf	___flmul@bexp
  2311  05FE  1BA2               	btfsc	___flmul@b+2,7
  2312  05FF  1433               	bsf	___flmul@bexp,0
  2313  0600  0833               	movf	___flmul@bexp,w
  2314  0601  1903               	btfsc	3,2
  2315  0602  2E10               	goto	l1565
  2316  0603  0A33               	incf	___flmul@bexp,w
  2317  0604  1D03               	btfss	3,2
  2318  0605  2E0E               	goto	l1563
  2319  0606  3000               	movlw	0
  2320  0607  00A3               	movwf	___flmul@b+3
  2321  0608  3000               	movlw	0
  2322  0609  00A2               	movwf	___flmul@b+2
  2323  060A  3000               	movlw	0
  2324  060B  00A1               	movwf	___flmul@b+1
  2325  060C  3000               	movlw	0
  2326  060D  00A0               	movwf	___flmul@b
  2327  060E                     l1563:
  2328  060E  17A2               	bsf	___flmul@b+2,7
  2329  060F  2E18               	goto	l1567
  2330  0610                     l1565:
  2331  0610  3000               	movlw	0
  2332  0611  00A3               	movwf	___flmul@b+3
  2333  0612  3000               	movlw	0
  2334  0613  00A2               	movwf	___flmul@b+2
  2335  0614  3000               	movlw	0
  2336  0615  00A1               	movwf	___flmul@b+1
  2337  0616  3000               	movlw	0
  2338  0617  00A0               	movwf	___flmul@b
  2339  0618                     l1567:
  2340  0618  0827               	movf	___flmul@a+3,w
  2341  0619  3980               	andlw	128
  2342  061A  00A8               	movwf	??___flmul
  2343  061B  0828               	movf	??___flmul,w
  2344  061C  06AD               	xorwf	___flmul@sign,f
  2345  061D  3527               	lslf	___flmul@a+3,w
  2346  061E  00A8               	movwf	??___flmul
  2347  061F  0828               	movf	??___flmul,w
  2348  0620  00AE               	movwf	___flmul@aexp
  2349  0621  1BA6               	btfsc	___flmul@a+2,7
  2350  0622  142E               	bsf	___flmul@aexp,0
  2351  0623  082E               	movf	___flmul@aexp,w
  2352  0624  1903               	btfsc	3,2
  2353  0625  2E33               	goto	l1583
  2354  0626  0A2E               	incf	___flmul@aexp,w
  2355  0627  1D03               	btfss	3,2
  2356  0628  2E31               	goto	l1581
  2357  0629  3000               	movlw	0
  2358  062A  00A7               	movwf	___flmul@a+3
  2359  062B  3000               	movlw	0
  2360  062C  00A6               	movwf	___flmul@a+2
  2361  062D  3000               	movlw	0
  2362  062E  00A5               	movwf	___flmul@a+1
  2363  062F  3000               	movlw	0
  2364  0630  00A4               	movwf	___flmul@a
  2365  0631                     l1581:
  2366  0631  17A6               	bsf	___flmul@a+2,7
  2367  0632  2E3B               	goto	l1585
  2368  0633                     l1583:
  2369  0633  3000               	movlw	0
  2370  0634  00A7               	movwf	___flmul@a+3
  2371  0635  3000               	movlw	0
  2372  0636  00A6               	movwf	___flmul@a+2
  2373  0637  3000               	movlw	0
  2374  0638  00A5               	movwf	___flmul@a+1
  2375  0639  3000               	movlw	0
  2376  063A  00A4               	movwf	___flmul@a
  2377  063B                     l1585:
  2378  063B  082E               	movf	___flmul@aexp,w
  2379  063C  1D03               	btfss	3,2
  2380  063D  0833               	movf	___flmul@bexp,w
  2381  063E  1D03               	btfss	3,2
  2382  063F  2E49               	goto	l1593
  2383  0640  3000               	movlw	0
  2384  0641  00A3               	movwf	?___flmul+3
  2385  0642  3000               	movlw	0
  2386  0643  00A2               	movwf	?___flmul+2
  2387  0644  3000               	movlw	0
  2388  0645  00A1               	movwf	?___flmul+1
  2389  0646  3000               	movlw	0
  2390  0647  00A0               	movwf	?___flmul
  2391  0648  0008               	return
  2392  0649                     l1593:
  2393  0649  0820               	movf	___flmul@b,w
  2394  064A  00A8               	movwf	??___flmul
  2395  064B  0828               	movf	??___flmul,w
  2396  064C  00F0               	movwf	__Umul8_16@multiplicand
  2397  064D  0826               	movf	___flmul@a+2,w
  2398  064E  224E               	fcall	__Umul8_16
  2399  064F  0871               	movf	?__Umul8_16+1,w
  2400  0650  00B9               	movwf	___flmul@temp+1
  2401  0651  0870               	movf	?__Umul8_16,w
  2402  0652  00B8               	movwf	___flmul@temp
  2403  0653  0838               	movf	___flmul@temp,w
  2404  0654  00A8               	movwf	??___flmul
  2405  0655  01A9               	clrf	??___flmul+1
  2406  0656  01AA               	clrf	??___flmul+2
  2407  0657  01AB               	clrf	??___flmul+3
  2408  0658  082B               	movf	??___flmul+3,w
  2409  0659  00B2               	movwf	___flmul@grs+3
  2410  065A  082A               	movf	??___flmul+2,w
  2411  065B  00B1               	movwf	___flmul@grs+2
  2412  065C  0829               	movf	??___flmul+1,w
  2413  065D  00B0               	movwf	___flmul@grs+1
  2414  065E  0828               	movf	??___flmul,w
  2415  065F  00AF               	movwf	___flmul@grs
  2416  0660  0839               	movf	___flmul@temp+1,w
  2417  0661  00A8               	movwf	??___flmul
  2418  0662  01A9               	clrf	??___flmul+1
  2419  0663  01AA               	clrf	??___flmul+2
  2420  0664  01AB               	clrf	??___flmul+3
  2421  0665  082B               	movf	??___flmul+3,w
  2422  0666  00B7               	movwf	___flmul@prod+3
  2423  0667  082A               	movf	??___flmul+2,w
  2424  0668  00B6               	movwf	___flmul@prod+2
  2425  0669  0829               	movf	??___flmul+1,w
  2426  066A  00B5               	movwf	___flmul@prod+1
  2427  066B  0828               	movf	??___flmul,w
  2428  066C  00B4               	movwf	___flmul@prod
  2429  066D  0821               	movf	___flmul@b+1,w
  2430  066E  00A8               	movwf	??___flmul
  2431  066F  0828               	movf	??___flmul,w
  2432  0670  00F0               	movwf	__Umul8_16@multiplicand
  2433  0671  0825               	movf	___flmul@a+1,w
  2434  0672  224E               	fcall	__Umul8_16
  2435  0673  0871               	movf	?__Umul8_16+1,w
  2436  0674  00B9               	movwf	___flmul@temp+1
  2437  0675  0870               	movf	?__Umul8_16,w
  2438  0676  00B8               	movwf	___flmul@temp
  2439  0677  0838               	movf	___flmul@temp,w
  2440  0678  00A8               	movwf	??___flmul
  2441  0679  01A9               	clrf	??___flmul+1
  2442  067A  01AA               	clrf	??___flmul+2
  2443  067B  01AB               	clrf	??___flmul+3
  2444  067C  0828               	movf	??___flmul,w
  2445  067D  07AF               	addwf	___flmul@grs,f
  2446  067E  0829               	movf	??___flmul+1,w
  2447  067F  3DB0               	addwfc	___flmul@grs+1,f
  2448  0680  082A               	movf	??___flmul+2,w
  2449  0681  3DB1               	addwfc	___flmul@grs+2,f
  2450  0682  082B               	movf	??___flmul+3,w
  2451  0683  3DB2               	addwfc	___flmul@grs+3,f
  2452  0684  0839               	movf	___flmul@temp+1,w
  2453  0685  00A8               	movwf	??___flmul
  2454  0686  01A9               	clrf	??___flmul+1
  2455  0687  01AA               	clrf	??___flmul+2
  2456  0688  01AB               	clrf	??___flmul+3
  2457  0689  0828               	movf	??___flmul,w
  2458  068A  07B4               	addwf	___flmul@prod,f
  2459  068B  0829               	movf	??___flmul+1,w
  2460  068C  3DB5               	addwfc	___flmul@prod+1,f
  2461  068D  082A               	movf	??___flmul+2,w
  2462  068E  3DB6               	addwfc	___flmul@prod+2,f
  2463  068F  082B               	movf	??___flmul+3,w
  2464  0690  3DB7               	addwfc	___flmul@prod+3,f
  2465  0691  0822               	movf	___flmul@b+2,w
  2466  0692  00A8               	movwf	??___flmul
  2467  0693  0828               	movf	??___flmul,w
  2468  0694  00F0               	movwf	__Umul8_16@multiplicand
  2469  0695  0824               	movf	___flmul@a,w
  2470  0696  224E               	fcall	__Umul8_16
  2471  0697  0871               	movf	?__Umul8_16+1,w
  2472  0698  00B9               	movwf	___flmul@temp+1
  2473  0699  0870               	movf	?__Umul8_16,w
  2474  069A  00B8               	movwf	___flmul@temp
  2475  069B  0838               	movf	___flmul@temp,w
  2476  069C  00A8               	movwf	??___flmul
  2477  069D  01A9               	clrf	??___flmul+1
  2478  069E  01AA               	clrf	??___flmul+2
  2479  069F  01AB               	clrf	??___flmul+3
  2480  06A0  0828               	movf	??___flmul,w
  2481  06A1  07AF               	addwf	___flmul@grs,f
  2482  06A2  0829               	movf	??___flmul+1,w
  2483  06A3  3DB0               	addwfc	___flmul@grs+1,f
  2484  06A4  082A               	movf	??___flmul+2,w
  2485  06A5  3DB1               	addwfc	___flmul@grs+2,f
  2486  06A6  082B               	movf	??___flmul+3,w
  2487  06A7  3DB2               	addwfc	___flmul@grs+3,f
  2488  06A8  0839               	movf	___flmul@temp+1,w
  2489  06A9  00A8               	movwf	??___flmul
  2490  06AA  01A9               	clrf	??___flmul+1
  2491  06AB  01AA               	clrf	??___flmul+2
  2492  06AC  01AB               	clrf	??___flmul+3
  2493  06AD  0828               	movf	??___flmul,w
  2494  06AE  07B4               	addwf	___flmul@prod,f
  2495  06AF  0829               	movf	??___flmul+1,w
  2496  06B0  3DB5               	addwfc	___flmul@prod+1,f
  2497  06B1  082A               	movf	??___flmul+2,w
  2498  06B2  3DB6               	addwfc	___flmul@prod+2,f
  2499  06B3  082B               	movf	??___flmul+3,w
  2500  06B4  3DB7               	addwfc	___flmul@prod+3,f
  2501  06B5  3008               	movlw	8
  2502  06B6                     u1705:
  2503  06B6  35AF               	lslf	___flmul@grs,f
  2504  06B7  0DB0               	rlf	___flmul@grs+1,f
  2505  06B8  0DB1               	rlf	___flmul@grs+2,f
  2506  06B9  0DB2               	rlf	___flmul@grs+3,f
  2507  06BA  0B89               	decfsz	9,f
  2508  06BB  2EB6               	goto	u1705
  2509  06BC  0821               	movf	___flmul@b+1,w
  2510  06BD  00A8               	movwf	??___flmul
  2511  06BE  0828               	movf	??___flmul,w
  2512  06BF  00F0               	movwf	__Umul8_16@multiplicand
  2513  06C0  0824               	movf	___flmul@a,w
  2514  06C1  224E               	fcall	__Umul8_16
  2515  06C2  0871               	movf	?__Umul8_16+1,w
  2516  06C3  00B9               	movwf	___flmul@temp+1
  2517  06C4  0870               	movf	?__Umul8_16,w
  2518  06C5  00B8               	movwf	___flmul@temp
  2519  06C6  0838               	movf	___flmul@temp,w
  2520  06C7  07AF               	addwf	___flmul@grs,f
  2521  06C8  0839               	movf	___flmul@temp+1,w
  2522  06C9  3DB0               	addwfc	___flmul@grs+1,f
  2523  06CA  3000               	movlw	0
  2524  06CB  3DB1               	addwfc	___flmul@grs+2,f
  2525  06CC  3DB2               	addwfc	___flmul@grs+3,f
  2526  06CD  0820               	movf	___flmul@b,w
  2527  06CE  00A8               	movwf	??___flmul
  2528  06CF  0828               	movf	??___flmul,w
  2529  06D0  00F0               	movwf	__Umul8_16@multiplicand
  2530  06D1  0825               	movf	___flmul@a+1,w
  2531  06D2  224E               	fcall	__Umul8_16
  2532  06D3  0871               	movf	?__Umul8_16+1,w
  2533  06D4  00B9               	movwf	___flmul@temp+1
  2534  06D5  0870               	movf	?__Umul8_16,w
  2535  06D6  00B8               	movwf	___flmul@temp
  2536  06D7  0838               	movf	___flmul@temp,w
  2537  06D8  07AF               	addwf	___flmul@grs,f
  2538  06D9  0839               	movf	___flmul@temp+1,w
  2539  06DA  3DB0               	addwfc	___flmul@grs+1,f
  2540  06DB  3000               	movlw	0
  2541  06DC  3DB1               	addwfc	___flmul@grs+2,f
  2542  06DD  3DB2               	addwfc	___flmul@grs+3,f
  2543  06DE  3008               	movlw	8
  2544  06DF                     u1715:
  2545  06DF  35AF               	lslf	___flmul@grs,f
  2546  06E0  0DB0               	rlf	___flmul@grs+1,f
  2547  06E1  0DB1               	rlf	___flmul@grs+2,f
  2548  06E2  0DB2               	rlf	___flmul@grs+3,f
  2549  06E3  0B89               	decfsz	9,f
  2550  06E4  2EDF               	goto	u1715
  2551  06E5  0820               	movf	___flmul@b,w
  2552  06E6  00A8               	movwf	??___flmul
  2553  06E7  0828               	movf	??___flmul,w
  2554  06E8  00F0               	movwf	__Umul8_16@multiplicand
  2555  06E9  0824               	movf	___flmul@a,w
  2556  06EA  224E               	fcall	__Umul8_16
  2557  06EB  0871               	movf	?__Umul8_16+1,w
  2558  06EC  00B9               	movwf	___flmul@temp+1
  2559  06ED  0870               	movf	?__Umul8_16,w
  2560  06EE  00B8               	movwf	___flmul@temp
  2561  06EF  0838               	movf	___flmul@temp,w
  2562  06F0  07AF               	addwf	___flmul@grs,f
  2563  06F1  0839               	movf	___flmul@temp+1,w
  2564  06F2  3DB0               	addwfc	___flmul@grs+1,f
  2565  06F3  3000               	movlw	0
  2566  06F4  3DB1               	addwfc	___flmul@grs+2,f
  2567  06F5  3DB2               	addwfc	___flmul@grs+3,f
  2568  06F6  0821               	movf	___flmul@b+1,w
  2569  06F7  00A8               	movwf	??___flmul
  2570  06F8  0828               	movf	??___flmul,w
  2571  06F9  00F0               	movwf	__Umul8_16@multiplicand
  2572  06FA  0826               	movf	___flmul@a+2,w
  2573  06FB  224E               	fcall	__Umul8_16
  2574  06FC  0871               	movf	?__Umul8_16+1,w
  2575  06FD  00B9               	movwf	___flmul@temp+1
  2576  06FE  0870               	movf	?__Umul8_16,w
  2577  06FF  00B8               	movwf	___flmul@temp
  2578  0700  0838               	movf	___flmul@temp,w
  2579  0701  07B4               	addwf	___flmul@prod,f
  2580  0702  0839               	movf	___flmul@temp+1,w
  2581  0703  3DB5               	addwfc	___flmul@prod+1,f
  2582  0704  3000               	movlw	0
  2583  0705  3DB6               	addwfc	___flmul@prod+2,f
  2584  0706  3DB7               	addwfc	___flmul@prod+3,f
  2585  0707  0822               	movf	___flmul@b+2,w
  2586  0708  00A8               	movwf	??___flmul
  2587  0709  0828               	movf	??___flmul,w
  2588  070A  00F0               	movwf	__Umul8_16@multiplicand
  2589  070B  0825               	movf	___flmul@a+1,w
  2590  070C  224E               	fcall	__Umul8_16
  2591  070D  0871               	movf	?__Umul8_16+1,w
  2592  070E  00B9               	movwf	___flmul@temp+1
  2593  070F  0870               	movf	?__Umul8_16,w
  2594  0710  00B8               	movwf	___flmul@temp
  2595  0711  0838               	movf	___flmul@temp,w
  2596  0712  07B4               	addwf	___flmul@prod,f
  2597  0713  0839               	movf	___flmul@temp+1,w
  2598  0714  3DB5               	addwfc	___flmul@prod+1,f
  2599  0715  3000               	movlw	0
  2600  0716  3DB6               	addwfc	___flmul@prod+2,f
  2601  0717  3DB7               	addwfc	___flmul@prod+3,f
  2602  0718  0822               	movf	___flmul@b+2,w
  2603  0719  00A8               	movwf	??___flmul
  2604  071A  0828               	movf	??___flmul,w
  2605  071B  00F0               	movwf	__Umul8_16@multiplicand
  2606  071C  0826               	movf	___flmul@a+2,w
  2607  071D  224E               	fcall	__Umul8_16
  2608  071E  0871               	movf	?__Umul8_16+1,w
  2609  071F  00B9               	movwf	___flmul@temp+1
  2610  0720  0870               	movf	?__Umul8_16,w
  2611  0721  00B8               	movwf	___flmul@temp
  2612  0722  0838               	movf	___flmul@temp,w
  2613  0723  00A8               	movwf	??___flmul
  2614  0724  0839               	movf	___flmul@temp+1,w
  2615  0725  00A9               	movwf	??___flmul+1
  2616  0726  01AA               	clrf	??___flmul+2
  2617  0727  01AB               	clrf	??___flmul+3
  2618  0728  3008               	movlw	8
  2619  0729                     u1725:
  2620  0729  35A8               	lslf	??___flmul,f
  2621  072A  0DA9               	rlf	??___flmul+1,f
  2622  072B  0DAA               	rlf	??___flmul+2,f
  2623  072C  0DAB               	rlf	??___flmul+3,f
  2624  072D  0B89               	decfsz	9,f
  2625  072E  2F29               	goto	u1725
  2626  072F  0828               	movf	??___flmul,w
  2627  0730  07B4               	addwf	___flmul@prod,f
  2628  0731  0829               	movf	??___flmul+1,w
  2629  0732  3DB5               	addwfc	___flmul@prod+1,f
  2630  0733  082A               	movf	??___flmul+2,w
  2631  0734  3DB6               	addwfc	___flmul@prod+2,f
  2632  0735  082B               	movf	??___flmul+3,w
  2633  0736  3DB7               	addwfc	___flmul@prod+3,f
  2634  0737  0832               	movf	___flmul@grs+3,w
  2635  0738  00A8               	movwf	??___flmul
  2636  0739  01A9               	clrf	??___flmul+1
  2637  073A  01AA               	clrf	??___flmul+2
  2638  073B  01AB               	clrf	??___flmul+3
  2639  073C  0828               	movf	??___flmul,w
  2640  073D  07B4               	addwf	___flmul@prod,f
  2641  073E  0829               	movf	??___flmul+1,w
  2642  073F  3DB5               	addwfc	___flmul@prod+1,f
  2643  0740  082A               	movf	??___flmul+2,w
  2644  0741  3DB6               	addwfc	___flmul@prod+2,f
  2645  0742  082B               	movf	??___flmul+3,w
  2646  0743  3DB7               	addwfc	___flmul@prod+3,f
  2647  0744  3008               	movlw	8
  2648  0745                     u1735:
  2649  0745  35AF               	lslf	___flmul@grs,f
  2650  0746  0DB0               	rlf	___flmul@grs+1,f
  2651  0747  0DB1               	rlf	___flmul@grs+2,f
  2652  0748  0DB2               	rlf	___flmul@grs+3,f
  2653  0749  0B89               	decfsz	9,f
  2654  074A  2F45               	goto	u1735
  2655  074B  0833               	movf	___flmul@bexp,w
  2656  074C  072E               	addwf	___flmul@aexp,w
  2657  074D  00A8               	movwf	??___flmul
  2658  074E  01A9               	clrf	??___flmul+1
  2659  074F  0DA9               	rlf	??___flmul+1,f
  2660  0750  0828               	movf	??___flmul,w
  2661  0751  3E82               	addlw	130
  2662  0752  00B8               	movwf	___flmul@temp
  2663  0753  30FF               	movlw	255
  2664  0754  3D29               	addwfc	??___flmul+1,w
  2665  0755  00B9               	movwf	___flmul@temp+1
  2666  0756                     l1645:
  2667  0756  1BB6               	btfsc	___flmul@prod+2,7
  2668  0757  2F6D               	goto	l1647
  2669  0758  3001               	movlw	1
  2670  0759                     u1745:
  2671  0759  35B4               	lslf	___flmul@prod,f
  2672  075A  0DB5               	rlf	___flmul@prod+1,f
  2673  075B  0DB6               	rlf	___flmul@prod+2,f
  2674  075C  0DB7               	rlf	___flmul@prod+3,f
  2675  075D  0B89               	decfsz	9,f
  2676  075E  2F59               	goto	u1745
  2677  075F  1BB2               	btfsc	___flmul@grs+3,7
  2678  0760  1434               	bsf	___flmul@prod,0
  2679  0761  3001               	movlw	1
  2680  0762                     u1765:
  2681  0762  35AF               	lslf	___flmul@grs,f
  2682  0763  0DB0               	rlf	___flmul@grs+1,f
  2683  0764  0DB1               	rlf	___flmul@grs+2,f
  2684  0765  0DB2               	rlf	___flmul@grs+3,f
  2685  0766  0B89               	decfsz	9,f
  2686  0767  2F62               	goto	u1765
  2687  0768  30FF               	movlw	255
  2688  0769  07B8               	addwf	___flmul@temp,f
  2689  076A  30FF               	movlw	255
  2690  076B  3DB9               	addwfc	___flmul@temp+1,f
  2691  076C  2F56               	goto	l1645
  2692  076D                     l1647:
  2693  076D  01AE               	clrf	___flmul@aexp
  2694  076E  1FB2               	btfss	___flmul@grs+3,7
  2695  076F  2F86               	goto	l1657
  2696  0770  30FF               	movlw	255
  2697  0771  052F               	andwf	___flmul@grs,w
  2698  0772  00A8               	movwf	??___flmul
  2699  0773  30FF               	movlw	255
  2700  0774  0530               	andwf	___flmul@grs+1,w
  2701  0775  00A9               	movwf	??___flmul+1
  2702  0776  30FF               	movlw	255
  2703  0777  0531               	andwf	___flmul@grs+2,w
  2704  0778  00AA               	movwf	??___flmul+2
  2705  0779  307F               	movlw	127
  2706  077A  0532               	andwf	___flmul@grs+3,w
  2707  077B  00AB               	movwf	??___flmul+3
  2708  077C  082B               	movf	??___flmul+3,w
  2709  077D  042A               	iorwf	??___flmul+2,w
  2710  077E  0429               	iorwf	??___flmul+1,w
  2711  077F  0428               	iorwf	??___flmul,w
  2712  0780  1903               	skipnz
  2713  0781  1834               	btfsc	___flmul@prod,0
  2714  0782  2F84               	goto	l1653
  2715  0783  2F86               	goto	l1657
  2716  0784                     l1653:
  2717  0784  01AE               	clrf	___flmul@aexp
  2718  0785  0AAE               	incf	___flmul@aexp,f
  2719  0786                     l1657:
  2720  0786  082E               	movf	___flmul@aexp,w
  2721  0787  1903               	btfsc	3,2
  2722  0788  2FAF               	goto	l1667
  2723  0789  3001               	movlw	1
  2724  078A  07B4               	addwf	___flmul@prod,f
  2725  078B  3000               	movlw	0
  2726  078C  3DB5               	addwfc	___flmul@prod+1,f
  2727  078D  3000               	movlw	0
  2728  078E  3DB6               	addwfc	___flmul@prod+2,f
  2729  078F  3000               	movlw	0
  2730  0790  3DB7               	addwfc	___flmul@prod+3,f
  2731  0791  1C37               	btfss	___flmul@prod+3,0
  2732  0792  2FAF               	goto	l1667
  2733  0793  0834               	movf	___flmul@prod,w
  2734  0794  00A8               	movwf	??___flmul
  2735  0795  0835               	movf	___flmul@prod+1,w
  2736  0796  00A9               	movwf	??___flmul+1
  2737  0797  0836               	movf	___flmul@prod+2,w
  2738  0798  00AA               	movwf	??___flmul+2
  2739  0799  0837               	movf	___flmul@prod+3,w
  2740  079A  00AB               	movwf	??___flmul+3
  2741  079B  3001               	movlw	1
  2742  079C  00AC               	movwf	??___flmul+4
  2743  079D                     u1835:
  2744  079D  37AB               	asrf	??___flmul+3,f
  2745  079E  0CAA               	rrf	??___flmul+2,f
  2746  079F  0CA9               	rrf	??___flmul+1,f
  2747  07A0  0CA8               	rrf	??___flmul,f
  2748  07A1  0BAC               	decfsz	??___flmul+4,f
  2749  07A2  2F9D               	goto	u1835
  2750  07A3  082B               	movf	??___flmul+3,w
  2751  07A4  00B7               	movwf	___flmul@prod+3
  2752  07A5  082A               	movf	??___flmul+2,w
  2753  07A6  00B6               	movwf	___flmul@prod+2
  2754  07A7  0829               	movf	??___flmul+1,w
  2755  07A8  00B5               	movwf	___flmul@prod+1
  2756  07A9  0828               	movf	??___flmul,w
  2757  07AA  00B4               	movwf	___flmul@prod
  2758  07AB  3001               	movlw	1
  2759  07AC  07B8               	addwf	___flmul@temp,f
  2760  07AD  3000               	movlw	0
  2761  07AE  3DB9               	addwfc	___flmul@temp+1,f
  2762  07AF                     l1667:
  2763  07AF  0839               	movf	___flmul@temp+1,w
  2764  07B0  3A80               	xorlw	128
  2765  07B1  00A8               	movwf	??___flmul
  2766  07B2  3080               	movlw	128
  2767  07B3  0228               	subwf	??___flmul,w
  2768  07B4  1D03               	skipz
  2769  07B5  2FB8               	goto	u1845
  2770  07B6  30FF               	movlw	255
  2771  07B7  0238               	subwf	___flmul@temp,w
  2772  07B8                     u1845:
  2773  07B8  1C03               	skipc
  2774  07B9  2FC4               	goto	l1671
  2775  07BA  307F               	movlw	127
  2776  07BB  0020               	movlb	0	; select bank0
  2777  07BC  00B7               	movwf	___flmul@prod+3
  2778  07BD  3080               	movlw	128
  2779  07BE  00B6               	movwf	___flmul@prod+2
  2780  07BF  3000               	movlw	0
  2781  07C0  00B5               	movwf	___flmul@prod+1
  2782  07C1  3000               	movlw	0
  2783  07C2  00B4               	movwf	___flmul@prod
  2784  07C3  2FEE               	goto	l722
  2785  07C4                     l1671:
  2786  07C4  0020               	movlb	0	; select bank0
  2787  07C5  0839               	movf	___flmul@temp+1,w
  2788  07C6  3A80               	xorlw	128
  2789  07C7  00A8               	movwf	??___flmul
  2790  07C8  3080               	movlw	128
  2791  07C9  0228               	subwf	??___flmul,w
  2792  07CA  1D03               	skipz
  2793  07CB  2FCE               	goto	u1855
  2794  07CC  3001               	movlw	1
  2795  07CD  0238               	subwf	___flmul@temp,w
  2796  07CE                     u1855:
  2797  07CE  1803               	skipnc
  2798  07CF  2FDB               	goto	l1677
  2799  07D0  3000               	movlw	0
  2800  07D1  0020               	movlb	0	; select bank0
  2801  07D2  00B7               	movwf	___flmul@prod+3
  2802  07D3  3000               	movlw	0
  2803  07D4  00B6               	movwf	___flmul@prod+2
  2804  07D5  3000               	movlw	0
  2805  07D6  00B5               	movwf	___flmul@prod+1
  2806  07D7  3000               	movlw	0
  2807  07D8  00B4               	movwf	___flmul@prod
  2808  07D9  01AD               	clrf	___flmul@sign
  2809  07DA  2FEE               	goto	l722
  2810  07DB                     l1677:
  2811  07DB  0020               	movlb	0	; select bank0
  2812  07DC  0838               	movf	___flmul@temp,w
  2813  07DD  00A8               	movwf	??___flmul
  2814  07DE  0828               	movf	??___flmul,w
  2815  07DF  00B3               	movwf	___flmul@bexp
  2816  07E0  30FF               	movlw	255
  2817  07E1  05B4               	andwf	___flmul@prod,f
  2818  07E2  30FF               	movlw	255
  2819  07E3  05B5               	andwf	___flmul@prod+1,f
  2820  07E4  307F               	movlw	127
  2821  07E5  05B6               	andwf	___flmul@prod+2,f
  2822  07E6  3000               	movlw	0
  2823  07E7  05B7               	andwf	___flmul@prod+3,f
  2824  07E8  1833               	btfsc	___flmul@bexp,0
  2825  07E9  17B6               	bsf	___flmul@prod+2,7
  2826  07EA  3633               	lsrf	___flmul@bexp,w
  2827  07EB  00A8               	movwf	??___flmul
  2828  07EC  0828               	movf	??___flmul,w
  2829  07ED  00B7               	movwf	___flmul@prod+3
  2830  07EE                     l722:
  2831  07EE  082D               	movf	___flmul@sign,w
  2832  07EF  00A8               	movwf	??___flmul
  2833  07F0  0828               	movf	??___flmul,w
  2834  07F1  04B7               	iorwf	___flmul@prod+3,f
  2835  07F2  0837               	movf	___flmul@prod+3,w
  2836  07F3  00A3               	movwf	?___flmul+3
  2837  07F4  0836               	movf	___flmul@prod+2,w
  2838  07F5  00A2               	movwf	?___flmul+2
  2839  07F6  0835               	movf	___flmul@prod+1,w
  2840  07F7  00A1               	movwf	?___flmul+1
  2841  07F8  0834               	movf	___flmul@prod,w
  2842  07F9  00A0               	movwf	?___flmul
  2843  07FA  0008               	return
  2844  07FB                     __end_of___flmul:
  2845                           
  2846                           	psect	text6
  2847  024E                     __ptext6:	
  2848 ;; *************** function __Umul8_16 *****************
  2849 ;; Defined at:
  2850 ;;		line 4 in file "D:\Softwares\Microchip\xc8\v2.36\pic\sources\c99\common\Umul8_16.c"
  2851 ;; Parameters:    Size  Location     Type
  2852 ;;  multiplier      1    wreg     unsigned char 
  2853 ;;  multiplicand    1    0[COMMON] unsigned char 
  2854 ;; Auto vars:     Size  Location     Type
  2855 ;;  multiplier      1    8[COMMON] unsigned char 
  2856 ;;  word_mpld       2    6[COMMON] unsigned int 
  2857 ;;  product         2    4[COMMON] unsigned int 
  2858 ;; Return value:  Size  Location     Type
  2859 ;;                  2    0[COMMON] unsigned int 
  2860 ;; Registers used:
  2861 ;;		wreg, status,2, status,0
  2862 ;; Tracked objects:
  2863 ;;		On entry : 1F/0
  2864 ;;		On exit  : 1F/0
  2865 ;;		Unchanged: 1F/0
  2866 ;; Data sizes:     COMMON   BANK0   BANK1   BANK2
  2867 ;;      Params:         2       0       0       0
  2868 ;;      Locals:         5       0       0       0
  2869 ;;      Temps:          2       0       0       0
  2870 ;;      Totals:         9       0       0       0
  2871 ;;Total ram usage:        9 bytes
  2872 ;; Hardware stack levels used: 1
  2873 ;; This function calls:
  2874 ;;		Nothing
  2875 ;; This function is called by:
  2876 ;;		___flmul
  2877 ;; This function uses a non-reentrant model
  2878 ;;
  2879                           
  2880  024E                     __Umul8_16:	
  2881                           ;psect for function __Umul8_16
  2882                           
  2883                           
  2884                           ;incstack = 0
  2885                           ; Regs used in __Umul8_16: [wreg+status,2+status,0]
  2886                           ;__Umul8_16@multiplier stored from wreg
  2887  024E  00F8               	movwf	__Umul8_16@multiplier
  2888  024F  01F4               	clrf	__Umul8_16@product
  2889  0250  01F5               	clrf	__Umul8_16@product+1
  2890  0251  0870               	movf	__Umul8_16@multiplicand,w
  2891  0252  00F2               	movwf	??__Umul8_16
  2892  0253  01F3               	clrf	??__Umul8_16+1
  2893  0254  0872               	movf	??__Umul8_16,w
  2894  0255  00F6               	movwf	__Umul8_16@word_mpld
  2895  0256  0873               	movf	??__Umul8_16+1,w
  2896  0257  00F7               	movwf	__Umul8_16@word_mpld+1
  2897  0258                     l1309:
  2898  0258  1C78               	btfss	__Umul8_16@multiplier,0
  2899  0259  2A5E               	goto	l729
  2900  025A  0876               	movf	__Umul8_16@word_mpld,w
  2901  025B  07F4               	addwf	__Umul8_16@product,f
  2902  025C  0877               	movf	__Umul8_16@word_mpld+1,w
  2903  025D  3DF5               	addwfc	__Umul8_16@product+1,f
  2904  025E                     l729:
  2905  025E  3001               	movlw	1
  2906  025F                     u1075:
  2907  025F  35F6               	lslf	__Umul8_16@word_mpld,f
  2908  0260  0DF7               	rlf	__Umul8_16@word_mpld+1,f
  2909  0261  0B89               	decfsz	9,f
  2910  0262  2A5F               	goto	u1075
  2911  0263  1003               	clrc
  2912  0264  0CF8               	rrf	__Umul8_16@multiplier,f
  2913  0265  0878               	movf	__Umul8_16@multiplier,w
  2914  0266  1D03               	btfss	3,2
  2915  0267  2A58               	goto	l1309
  2916  0268  0875               	movf	__Umul8_16@product+1,w
  2917  0269  00F1               	movwf	?__Umul8_16+1
  2918  026A  0874               	movf	__Umul8_16@product,w
  2919  026B  00F0               	movwf	?__Umul8_16
  2920  026C  0008               	return
  2921  026D                     __end_of__Umul8_16:
  2922                           
  2923                           	psect	text7
  2924  0414                     __ptext7:	
  2925 ;; *************** function ___fladd *****************
  2926 ;; Defined at:
  2927 ;;		line 10 in file "D:\Softwares\Microchip\xc8\v2.36\pic\sources\c99\common\sprcadd.c"
  2928 ;; Parameters:    Size  Location     Type
  2929 ;;  b               4   26[BANK0 ] unsigned int 
  2930 ;;  a               4   30[BANK0 ] unsigned int 
  2931 ;; Auto vars:     Size  Location     Type
  2932 ;;  grs             1   45[BANK0 ] unsigned char 
  2933 ;;  bexp            1   44[BANK0 ] unsigned char 
  2934 ;;  aexp            1   43[BANK0 ] unsigned char 
  2935 ;;  signs           1   42[BANK0 ] unsigned char 
  2936 ;; Return value:  Size  Location     Type
  2937 ;;                  4   26[BANK0 ] unsigned char 
  2938 ;; Registers used:
  2939 ;;		wreg, status,2, status,0
  2940 ;; Tracked objects:
  2941 ;;		On entry : 1F/0
  2942 ;;		On exit  : 1F/0
  2943 ;;		Unchanged: 0/0
  2944 ;; Data sizes:     COMMON   BANK0   BANK1   BANK2
  2945 ;;      Params:         0       8       0       0
  2946 ;;      Locals:         0       4       0       0
  2947 ;;      Temps:          0       8       0       0
  2948 ;;      Totals:         0      20       0       0
  2949 ;;Total ram usage:       20 bytes
  2950 ;; Hardware stack levels used: 1
  2951 ;; This function calls:
  2952 ;;		Nothing
  2953 ;; This function is called by:
  2954 ;;		_calculateTemperatureFromVolatage
  2955 ;; This function uses a non-reentrant model
  2956 ;;
  2957                           
  2958  0414                     ___fladd:	
  2959                           ;psect for function ___fladd
  2960                           
  2961                           
  2962                           ;incstack = 0
  2963                           ; Regs used in ___fladd: [wreg+status,2+status,0]
  2964  0414  083D               	movf	___fladd@b+3,w
  2965  0415  3980               	andlw	128
  2966  0416  00C2               	movwf	??___fladd
  2967  0417  0842               	movf	??___fladd,w
  2968  0418  00CA               	movwf	___fladd@signs
  2969  0419  353D               	lslf	___fladd@b+3,w
  2970  041A  00C2               	movwf	??___fladd
  2971  041B  0842               	movf	??___fladd,w
  2972  041C  00CC               	movwf	___fladd@bexp
  2973  041D  1BBC               	btfsc	___fladd@b+2,7
  2974  041E  144C               	bsf	___fladd@bexp,0
  2975  041F  084C               	movf	___fladd@bexp,w
  2976  0420  1903               	btfsc	3,2
  2977  0421  2C30               	goto	l1373
  2978  0422  0A4C               	incf	___fladd@bexp,w
  2979  0423  1D03               	btfss	3,2
  2980  0424  2C2D               	goto	l1369
  2981  0425  3000               	movlw	0
  2982  0426  00BD               	movwf	___fladd@b+3
  2983  0427  3000               	movlw	0
  2984  0428  00BC               	movwf	___fladd@b+2
  2985  0429  3000               	movlw	0
  2986  042A  00BB               	movwf	___fladd@b+1
  2987  042B  3000               	movlw	0
  2988  042C  00BA               	movwf	___fladd@b
  2989  042D                     l1369:
  2990  042D  17BC               	bsf	___fladd@b+2,7
  2991  042E  01BD               	clrf	___fladd@b+3
  2992  042F  2C38               	goto	l1375
  2993  0430                     l1373:
  2994  0430  3000               	movlw	0
  2995  0431  00BD               	movwf	___fladd@b+3
  2996  0432  3000               	movlw	0
  2997  0433  00BC               	movwf	___fladd@b+2
  2998  0434  3000               	movlw	0
  2999  0435  00BB               	movwf	___fladd@b+1
  3000  0436  3000               	movlw	0
  3001  0437  00BA               	movwf	___fladd@b
  3002  0438                     l1375:
  3003  0438  0841               	movf	___fladd@a+3,w
  3004  0439  3980               	andlw	128
  3005  043A  00C2               	movwf	??___fladd
  3006  043B  0842               	movf	??___fladd,w
  3007  043C  00CB               	movwf	___fladd@aexp
  3008  043D  084B               	movf	___fladd@aexp,w
  3009  043E  064A               	xorwf	___fladd@signs,w
  3010  043F  1D03               	btfss	3,2
  3011  0440  174A               	bsf	___fladd@signs,6
  3012  0441  3541               	lslf	___fladd@a+3,w
  3013  0442  00C2               	movwf	??___fladd
  3014  0443  0842               	movf	??___fladd,w
  3015  0444  00CB               	movwf	___fladd@aexp
  3016  0445  1BC0               	btfsc	___fladd@a+2,7
  3017  0446  144B               	bsf	___fladd@aexp,0
  3018  0447  084B               	movf	___fladd@aexp,w
  3019  0448  1903               	btfsc	3,2
  3020  0449  2C58               	goto	l1397
  3021  044A  0A4B               	incf	___fladd@aexp,w
  3022  044B  1D03               	btfss	3,2
  3023  044C  2C55               	goto	l1393
  3024  044D  3000               	movlw	0
  3025  044E  00C1               	movwf	___fladd@a+3
  3026  044F  3000               	movlw	0
  3027  0450  00C0               	movwf	___fladd@a+2
  3028  0451  3000               	movlw	0
  3029  0452  00BF               	movwf	___fladd@a+1
  3030  0453  3000               	movlw	0
  3031  0454  00BE               	movwf	___fladd@a
  3032  0455                     l1393:
  3033  0455  17C0               	bsf	___fladd@a+2,7
  3034  0456  01C1               	clrf	___fladd@a+3
  3035  0457  2C60               	goto	l614
  3036  0458                     l1397:
  3037  0458  3000               	movlw	0
  3038  0459  00C1               	movwf	___fladd@a+3
  3039  045A  3000               	movlw	0
  3040  045B  00C0               	movwf	___fladd@a+2
  3041  045C  3000               	movlw	0
  3042  045D  00BF               	movwf	___fladd@a+1
  3043  045E  3000               	movlw	0
  3044  045F  00BE               	movwf	___fladd@a
  3045  0460                     l614:
  3046  0460  084C               	movf	___fladd@bexp,w
  3047  0461  024B               	subwf	___fladd@aexp,w
  3048  0462  1803               	skipnc
  3049  0463  2CA6               	goto	l1433
  3050  0464  1F4A               	btfss	___fladd@signs,6
  3051  0465  2C6A               	goto	l1403
  3052  0466  3080               	movlw	128
  3053  0467  00C2               	movwf	??___fladd
  3054  0468  0842               	movf	??___fladd,w
  3055  0469  06CA               	xorwf	___fladd@signs,f
  3056  046A                     l1403:
  3057  046A  084C               	movf	___fladd@bexp,w
  3058  046B  00C2               	movwf	??___fladd
  3059  046C  0842               	movf	??___fladd,w
  3060  046D  00CD               	movwf	___fladd@grs
  3061  046E  084B               	movf	___fladd@aexp,w
  3062  046F  00C2               	movwf	??___fladd
  3063  0470  0842               	movf	??___fladd,w
  3064  0471  00CC               	movwf	___fladd@bexp
  3065  0472  084D               	movf	___fladd@grs,w
  3066  0473  00C2               	movwf	??___fladd
  3067  0474  0842               	movf	??___fladd,w
  3068  0475  00CB               	movwf	___fladd@aexp
  3069  0476  083A               	movf	___fladd@b,w
  3070  0477  00C2               	movwf	??___fladd
  3071  0478  0842               	movf	??___fladd,w
  3072  0479  00CD               	movwf	___fladd@grs
  3073  047A  083E               	movf	___fladd@a,w
  3074  047B  00C2               	movwf	??___fladd
  3075  047C  0842               	movf	??___fladd,w
  3076  047D  00BA               	movwf	___fladd@b
  3077  047E  084D               	movf	___fladd@grs,w
  3078  047F  00C2               	movwf	??___fladd
  3079  0480  0842               	movf	??___fladd,w
  3080  0481  00BE               	movwf	___fladd@a
  3081  0482  083B               	movf	___fladd@b+1,w
  3082  0483  00C2               	movwf	??___fladd
  3083  0484  0842               	movf	??___fladd,w
  3084  0485  00CD               	movwf	___fladd@grs
  3085  0486  083F               	movf	___fladd@a+1,w
  3086  0487  00C2               	movwf	??___fladd
  3087  0488  0842               	movf	??___fladd,w
  3088  0489  00BB               	movwf	___fladd@b+1
  3089  048A  084D               	movf	___fladd@grs,w
  3090  048B  00C2               	movwf	??___fladd
  3091  048C  0842               	movf	??___fladd,w
  3092  048D  00BF               	movwf	___fladd@a+1
  3093  048E  083C               	movf	___fladd@b+2,w
  3094  048F  00C2               	movwf	??___fladd
  3095  0490  0842               	movf	??___fladd,w
  3096  0491  00CD               	movwf	___fladd@grs
  3097  0492  0840               	movf	___fladd@a+2,w
  3098  0493  00C2               	movwf	??___fladd
  3099  0494  0842               	movf	??___fladd,w
  3100  0495  00BC               	movwf	___fladd@b+2
  3101  0496  084D               	movf	___fladd@grs,w
  3102  0497  00C2               	movwf	??___fladd
  3103  0498  0842               	movf	??___fladd,w
  3104  0499  00C0               	movwf	___fladd@a+2
  3105  049A  083D               	movf	___fladd@b+3,w
  3106  049B  00C2               	movwf	??___fladd
  3107  049C  0842               	movf	??___fladd,w
  3108  049D  00CD               	movwf	___fladd@grs
  3109  049E  0841               	movf	___fladd@a+3,w
  3110  049F  00C2               	movwf	??___fladd
  3111  04A0  0842               	movf	??___fladd,w
  3112  04A1  00BD               	movwf	___fladd@b+3
  3113  04A2  084D               	movf	___fladd@grs,w
  3114  04A3  00C2               	movwf	??___fladd
  3115  04A4  0842               	movf	??___fladd,w
  3116  04A5  00C1               	movwf	___fladd@a+3
  3117  04A6                     l1433:
  3118  04A6  01CD               	clrf	___fladd@grs
  3119  04A7  084B               	movf	___fladd@aexp,w
  3120  04A8  00C2               	movwf	??___fladd
  3121  04A9  01C3               	clrf	??___fladd+1
  3122  04AA  0843               	movf	??___fladd+1,w
  3123  04AB  00C5               	movwf	??___fladd+3
  3124  04AC  084C               	movf	___fladd@bexp,w
  3125  04AD  0242               	subwf	??___fladd,w
  3126  04AE  00C4               	movwf	??___fladd+2
  3127  04AF  1C03               	skipc
  3128  04B0  03C5               	decf	??___fladd+3,f
  3129  04B1  0845               	movf	??___fladd+3,w
  3130  04B2  3A80               	xorlw	128
  3131  04B3  00C6               	movwf	??___fladd+4
  3132  04B4  3080               	movlw	128
  3133  04B5  0246               	subwf	??___fladd+4,w
  3134  04B6  1D03               	skipz
  3135  04B7  2CBA               	goto	u1285
  3136  04B8  301A               	movlw	26
  3137  04B9  0244               	subwf	??___fladd+2,w
  3138  04BA                     u1285:
  3139  04BA  1C03               	skipc
  3140  04BB  2CEE               	goto	l1451
  3141  04BC  0020               	movlb	0	; select bank0
  3142  04BD  083D               	movf	___fladd@b+3,w
  3143  04BE  043C               	iorwf	___fladd@b+2,w
  3144  04BF  043B               	iorwf	___fladd@b+1,w
  3145  04C0  043A               	iorwf	___fladd@b,w
  3146  04C1  1903               	btfsc	3,2
  3147  04C2  2CC5               	goto	u1290
  3148  04C3  3001               	movlw	1
  3149  04C4  2CC6               	goto	u1300
  3150  04C5                     u1290:
  3151  04C5  3000               	movlw	0
  3152  04C6                     u1300:
  3153  04C6  00C2               	movwf	??___fladd
  3154  04C7  0842               	movf	??___fladd,w
  3155  04C8  00CD               	movwf	___fladd@grs
  3156  04C9  3000               	movlw	0
  3157  04CA  00BD               	movwf	___fladd@b+3
  3158  04CB  3000               	movlw	0
  3159  04CC  00BC               	movwf	___fladd@b+2
  3160  04CD  3000               	movlw	0
  3161  04CE  00BB               	movwf	___fladd@b+1
  3162  04CF  3000               	movlw	0
  3163  04D0  00BA               	movwf	___fladd@b
  3164  04D1  084B               	movf	___fladd@aexp,w
  3165  04D2  00C2               	movwf	??___fladd
  3166  04D3  0842               	movf	??___fladd,w
  3167  04D4  00CC               	movwf	___fladd@bexp
  3168  04D5  2CF3               	goto	l618
  3169  04D6                     l620:
  3170  04D6  1C4D               	btfss	___fladd@grs,0
  3171  04D7  2CDE               	goto	l1441
  3172  04D8  364D               	lsrf	___fladd@grs,w
  3173  04D9  3801               	iorlw	1
  3174  04DA  00C2               	movwf	??___fladd
  3175  04DB  0842               	movf	??___fladd,w
  3176  04DC  00CD               	movwf	___fladd@grs
  3177  04DD  2CE0               	goto	l1443
  3178  04DE                     l1441:
  3179  04DE  1003               	clrc
  3180  04DF  0CCD               	rrf	___fladd@grs,f
  3181  04E0                     l1443:
  3182  04E0  183A               	btfsc	___fladd@b,0
  3183  04E1  17CD               	bsf	___fladd@grs,7
  3184  04E2  3001               	movlw	1
  3185  04E3  00C2               	movwf	??___fladd
  3186  04E4                     u1335:
  3187  04E4  37BD               	asrf	___fladd@b+3,f
  3188  04E5  0CBC               	rrf	___fladd@b+2,f
  3189  04E6  0CBB               	rrf	___fladd@b+1,f
  3190  04E7  0CBA               	rrf	___fladd@b,f
  3191  04E8  0BC2               	decfsz	??___fladd& (0+127),f
  3192  04E9  2CE4               	goto	u1335
  3193  04EA  3001               	movlw	1
  3194  04EB  00C2               	movwf	??___fladd
  3195  04EC  0842               	movf	??___fladd,w
  3196  04ED  07CC               	addwf	___fladd@bexp,f
  3197  04EE                     l1451:
  3198  04EE  0020               	movlb	0	; select bank0
  3199  04EF  084B               	movf	___fladd@aexp,w
  3200  04F0  024C               	subwf	___fladd@bexp,w
  3201  04F1  1C03               	skipc
  3202  04F2  2CD6               	goto	l620
  3203  04F3                     l618:
  3204  04F3  1B4A               	btfsc	___fladd@signs,6
  3205  04F4  2D24               	goto	l1477
  3206  04F5  084C               	movf	___fladd@bexp,w
  3207  04F6  1D03               	btfss	3,2
  3208  04F7  2D01               	goto	l1459
  3209  04F8  3000               	movlw	0
  3210  04F9  00BD               	movwf	?___fladd+3
  3211  04FA  3000               	movlw	0
  3212  04FB  00BC               	movwf	?___fladd+2
  3213  04FC  3000               	movlw	0
  3214  04FD  00BB               	movwf	?___fladd+1
  3215  04FE  3000               	movlw	0
  3216  04FF  00BA               	movwf	?___fladd
  3217  0500  0008               	return
  3218  0501                     l1459:
  3219  0501  083E               	movf	___fladd@a,w
  3220  0502  07BA               	addwf	___fladd@b,f
  3221  0503  083F               	movf	___fladd@a+1,w
  3222  0504  3DBB               	addwfc	___fladd@b+1,f
  3223  0505  0840               	movf	___fladd@a+2,w
  3224  0506  3DBC               	addwfc	___fladd@b+2,f
  3225  0507  0841               	movf	___fladd@a+3,w
  3226  0508  3DBD               	addwfc	___fladd@b+3,f
  3227  0509  1C3D               	btfss	___fladd@b+3,0
  3228  050A  2D9E               	goto	l1511
  3229  050B  1C4D               	btfss	___fladd@grs,0
  3230  050C  2D13               	goto	l1467
  3231  050D  364D               	lsrf	___fladd@grs,w
  3232  050E  3801               	iorlw	1
  3233  050F  00C2               	movwf	??___fladd
  3234  0510  0842               	movf	??___fladd,w
  3235  0511  00CD               	movwf	___fladd@grs
  3236  0512  2D15               	goto	l1469
  3237  0513                     l1467:
  3238  0513  1003               	clrc
  3239  0514  0CCD               	rrf	___fladd@grs,f
  3240  0515                     l1469:
  3241  0515  183A               	btfsc	___fladd@b,0
  3242  0516  17CD               	bsf	___fladd@grs,7
  3243  0517  3001               	movlw	1
  3244  0518  00C2               	movwf	??___fladd
  3245  0519                     u1405:
  3246  0519  37BD               	asrf	___fladd@b+3,f
  3247  051A  0CBC               	rrf	___fladd@b+2,f
  3248  051B  0CBB               	rrf	___fladd@b+1,f
  3249  051C  0CBA               	rrf	___fladd@b,f
  3250  051D  0BC2               	decfsz	??___fladd& (0+127),f
  3251  051E  2D19               	goto	u1405
  3252  051F  3001               	movlw	1
  3253  0520  00C2               	movwf	??___fladd
  3254  0521  0842               	movf	??___fladd,w
  3255  0522  07CC               	addwf	___fladd@bexp,f
  3256  0523  2D9E               	goto	l1511
  3257  0524                     l1477:
  3258  0524  083D               	movf	___fladd@b+3,w
  3259  0525  3A80               	xorlw	128
  3260  0526  00C2               	movwf	??___fladd
  3261  0527  0841               	movf	___fladd@a+3,w
  3262  0528  3A80               	xorlw	128
  3263  0529  0242               	subwf	??___fladd,w
  3264  052A  1D03               	skipz
  3265  052B  2D36               	goto	u1413
  3266  052C  0840               	movf	___fladd@a+2,w
  3267  052D  023C               	subwf	___fladd@b+2,w
  3268  052E  1D03               	skipz
  3269  052F  2D36               	goto	u1413
  3270  0530  083F               	movf	___fladd@a+1,w
  3271  0531  023B               	subwf	___fladd@b+1,w
  3272  0532  1D03               	skipz
  3273  0533  2D36               	goto	u1413
  3274  0534  083E               	movf	___fladd@a,w
  3275  0535  023A               	subwf	___fladd@b,w
  3276  0536                     u1413:
  3277  0536  1803               	skipnc
  3278  0537  2D6E               	goto	l1487
  3279  0538  30FF               	movlw	255
  3280  0539  00C2               	movwf	??___fladd
  3281  053A  30FF               	movlw	255
  3282  053B  00C3               	movwf	??___fladd+1
  3283  053C  30FF               	movlw	255
  3284  053D  00C4               	movwf	??___fladd+2
  3285  053E  30FF               	movlw	255
  3286  053F  00C5               	movwf	??___fladd+3
  3287  0540  083A               	movf	___fladd@b,w
  3288  0541  023E               	subwf	___fladd@a,w
  3289  0542  00C6               	movwf	??___fladd+4
  3290  0543  083B               	movf	___fladd@b+1,w
  3291  0544  3B3F               	subwfb	___fladd@a+1,w
  3292  0545  00C7               	movwf	??___fladd+5
  3293  0546  083C               	movf	___fladd@b+2,w
  3294  0547  3B40               	subwfb	___fladd@a+2,w
  3295  0548  00C8               	movwf	??___fladd+6
  3296  0549  083D               	movf	___fladd@b+3,w
  3297  054A  3B41               	subwfb	___fladd@a+3,w
  3298  054B  00C9               	movwf	??___fladd+7
  3299  054C  0846               	movf	??___fladd+4,w
  3300  054D  07C2               	addwf	??___fladd,f
  3301  054E  0847               	movf	??___fladd+5,w
  3302  054F  3DC3               	addwfc	??___fladd+1,f
  3303  0550  0848               	movf	??___fladd+6,w
  3304  0551  3DC4               	addwfc	??___fladd+2,f
  3305  0552  0849               	movf	??___fladd+7,w
  3306  0553  3DC5               	addwfc	??___fladd+3,f
  3307  0554  0845               	movf	??___fladd+3,w
  3308  0555  00BD               	movwf	___fladd@b+3
  3309  0556  0844               	movf	??___fladd+2,w
  3310  0557  00BC               	movwf	___fladd@b+2
  3311  0558  0843               	movf	??___fladd+1,w
  3312  0559  00BB               	movwf	___fladd@b+1
  3313  055A  0842               	movf	??___fladd,w
  3314  055B  00BA               	movwf	___fladd@b
  3315  055C  3080               	movlw	128
  3316  055D  00C2               	movwf	??___fladd
  3317  055E  0842               	movf	??___fladd,w
  3318  055F  06CA               	xorwf	___fladd@signs,f
  3319  0560  09CD               	comf	___fladd@grs,f
  3320  0561  0ACD               	incf	___fladd@grs,f
  3321  0562  084D               	movf	___fladd@grs,w
  3322  0563  1D03               	btfss	3,2
  3323  0564  2D76               	goto	l635
  3324  0565  3001               	movlw	1
  3325  0566  07BA               	addwf	___fladd@b,f
  3326  0567  3000               	movlw	0
  3327  0568  3DBB               	addwfc	___fladd@b+1,f
  3328  0569  3000               	movlw	0
  3329  056A  3DBC               	addwfc	___fladd@b+2,f
  3330  056B  3000               	movlw	0
  3331  056C  3DBD               	addwfc	___fladd@b+3,f
  3332  056D  2D76               	goto	l635
  3333  056E                     l1487:
  3334  056E  083E               	movf	___fladd@a,w
  3335  056F  02BA               	subwf	___fladd@b,f
  3336  0570  083F               	movf	___fladd@a+1,w
  3337  0571  3BBB               	subwfb	___fladd@b+1,f
  3338  0572  0840               	movf	___fladd@a+2,w
  3339  0573  3BBC               	subwfb	___fladd@b+2,f
  3340  0574  0841               	movf	___fladd@a+3,w
  3341  0575  3BBD               	subwfb	___fladd@b+3,f
  3342  0576                     l635:
  3343  0576  083D               	movf	___fladd@b+3,w
  3344  0577  043C               	iorwf	___fladd@b+2,w
  3345  0578  043B               	iorwf	___fladd@b+1,w
  3346  0579  043A               	iorwf	___fladd@b,w
  3347  057A  1D03               	skipz
  3348  057B  2D9C               	goto	l1509
  3349  057C  084D               	movf	___fladd@grs,w
  3350  057D  1D03               	btfss	3,2
  3351  057E  2D9C               	goto	l1509
  3352  057F  3000               	movlw	0
  3353  0580  00BD               	movwf	?___fladd+3
  3354  0581  3000               	movlw	0
  3355  0582  00BC               	movwf	?___fladd+2
  3356  0583  3000               	movlw	0
  3357  0584  00BB               	movwf	?___fladd+1
  3358  0585  3000               	movlw	0
  3359  0586  00BA               	movwf	?___fladd
  3360  0587  0008               	return
  3361  0588                     l1495:
  3362  0588  3001               	movlw	1
  3363  0589                     u1455:
  3364  0589  35BA               	lslf	___fladd@b,f
  3365  058A  0DBB               	rlf	___fladd@b+1,f
  3366  058B  0DBC               	rlf	___fladd@b+2,f
  3367  058C  0DBD               	rlf	___fladd@b+3,f
  3368  058D  0B89               	decfsz	9,f
  3369  058E  2D89               	goto	u1455
  3370  058F  1BCD               	btfsc	___fladd@grs,7
  3371  0590  143A               	bsf	___fladd@b,0
  3372  0591  1C4D               	btfss	___fladd@grs,0
  3373  0592  2D95               	goto	l1503
  3374  0593  1403               	setc
  3375  0594  2D96               	goto	L1
  3376  0595                     l1503:
  3377  0595  1003               	clrc
  3378  0596                     L1:
  3379  0596  0DCD               	rlf	___fladd@grs,f
  3380  0597  084C               	movf	___fladd@bexp,w
  3381  0598  1903               	btfsc	3,2
  3382  0599  2D9C               	goto	l1509
  3383  059A  3001               	movlw	1
  3384  059B  02CC               	subwf	___fladd@bexp,f
  3385  059C                     l1509:
  3386  059C  1FBC               	btfss	___fladd@b+2,7
  3387  059D  2D88               	goto	l1495
  3388  059E                     l1511:
  3389  059E  01CB               	clrf	___fladd@aexp
  3390  059F  1FCD               	btfss	___fladd@grs,7
  3391  05A0  2DA9               	goto	l1521
  3392  05A1  084D               	movf	___fladd@grs,w
  3393  05A2  397F               	andlw	127
  3394  05A3  1903               	btfsc	3,2
  3395  05A4  183A               	btfsc	___fladd@b,0
  3396  05A5  2DA7               	goto	l1517
  3397  05A6  2DA9               	goto	l1521
  3398  05A7                     l1517:
  3399  05A7  01CB               	clrf	___fladd@aexp
  3400  05A8  0ACB               	incf	___fladd@aexp,f
  3401  05A9                     l1521:
  3402  05A9  084B               	movf	___fladd@aexp,w
  3403  05AA  1903               	btfsc	3,2
  3404  05AB  2DD5               	goto	l648
  3405  05AC  3001               	movlw	1
  3406  05AD  07BA               	addwf	___fladd@b,f
  3407  05AE  3000               	movlw	0
  3408  05AF  3DBB               	addwfc	___fladd@b+1,f
  3409  05B0  3000               	movlw	0
  3410  05B1  3DBC               	addwfc	___fladd@b+2,f
  3411  05B2  3000               	movlw	0
  3412  05B3  3DBD               	addwfc	___fladd@b+3,f
  3413  05B4  1C3D               	btfss	___fladd@b+3,0
  3414  05B5  2DD5               	goto	l648
  3415  05B6  083A               	movf	___fladd@b,w
  3416  05B7  00C2               	movwf	??___fladd
  3417  05B8  083B               	movf	___fladd@b+1,w
  3418  05B9  00C3               	movwf	??___fladd+1
  3419  05BA  083C               	movf	___fladd@b+2,w
  3420  05BB  00C4               	movwf	??___fladd+2
  3421  05BC  083D               	movf	___fladd@b+3,w
  3422  05BD  00C5               	movwf	??___fladd+3
  3423  05BE  3001               	movlw	1
  3424  05BF  00C6               	movwf	??___fladd+4
  3425  05C0                     u1555:
  3426  05C0  37C5               	asrf	??___fladd+3,f
  3427  05C1  0CC4               	rrf	??___fladd+2,f
  3428  05C2  0CC3               	rrf	??___fladd+1,f
  3429  05C3  0CC2               	rrf	??___fladd,f
  3430  05C4  0BC6               	decfsz	??___fladd+4,f
  3431  05C5  2DC0               	goto	u1555
  3432  05C6  0845               	movf	??___fladd+3,w
  3433  05C7  00BD               	movwf	___fladd@b+3
  3434  05C8  0844               	movf	??___fladd+2,w
  3435  05C9  00BC               	movwf	___fladd@b+2
  3436  05CA  0843               	movf	??___fladd+1,w
  3437  05CB  00BB               	movwf	___fladd@b+1
  3438  05CC  0842               	movf	??___fladd,w
  3439  05CD  00BA               	movwf	___fladd@b
  3440  05CE  0A4C               	incf	___fladd@bexp,w
  3441  05CF  1903               	btfsc	3,2
  3442  05D0  2DD5               	goto	l648
  3443  05D1  3001               	movlw	1
  3444  05D2  00C2               	movwf	??___fladd
  3445  05D3  0842               	movf	??___fladd,w
  3446  05D4  07CC               	addwf	___fladd@bexp,f
  3447  05D5                     l648:
  3448  05D5  0A4C               	incf	___fladd@bexp,w
  3449  05D6  1D03               	btfss	3,2
  3450  05D7  084C               	movf	___fladd@bexp,w
  3451  05D8  1D03               	btfss	3,2
  3452  05D9  2DE5               	goto	l1539
  3453  05DA  3000               	movlw	0
  3454  05DB  00BD               	movwf	___fladd@b+3
  3455  05DC  3000               	movlw	0
  3456  05DD  00BC               	movwf	___fladd@b+2
  3457  05DE  3000               	movlw	0
  3458  05DF  00BB               	movwf	___fladd@b+1
  3459  05E0  3000               	movlw	0
  3460  05E1  00BA               	movwf	___fladd@b
  3461  05E2  084C               	movf	___fladd@bexp,w
  3462  05E3  1903               	btfsc	3,2
  3463  05E4  01CA               	clrf	___fladd@signs
  3464  05E5                     l1539:
  3465  05E5  1C4C               	btfss	___fladd@bexp,0
  3466  05E6  2DE9               	goto	l1543
  3467  05E7  17BC               	bsf	___fladd@b+2,7
  3468  05E8  2DED               	goto	l656
  3469  05E9                     l1543:
  3470  05E9  307F               	movlw	127
  3471  05EA  00C2               	movwf	??___fladd
  3472  05EB  0842               	movf	??___fladd,w
  3473  05EC  05BC               	andwf	___fladd@b+2,f
  3474  05ED                     l656:
  3475  05ED  364C               	lsrf	___fladd@bexp,w
  3476  05EE  00C2               	movwf	??___fladd
  3477  05EF  0842               	movf	??___fladd,w
  3478  05F0  00BD               	movwf	___fladd@b+3
  3479  05F1  1FCA               	btfss	___fladd@signs,7
  3480  05F2  0008               	return
  3481  05F3  17BD               	bsf	___fladd@b+3,7
  3482  05F4  0008               	return
  3483  05F5                     __end_of___fladd:
  3484                           
  3485                           	psect	text8
  3486  01DC                     __ptext8:	
  3487 ;; *************** function _SYSTEM_Initialize *****************
  3488 ;; Defined at:
  3489 ;;		line 50 in file "mcc_generated_files/mcc.c"
  3490 ;; Parameters:    Size  Location     Type
  3491 ;;		None
  3492 ;; Auto vars:     Size  Location     Type
  3493 ;;		None
  3494 ;; Return value:  Size  Location     Type
  3495 ;;                  1    wreg      void 
  3496 ;; Registers used:
  3497 ;;		wreg, status,2, status,0, pclath, cstack
  3498 ;; Tracked objects:
  3499 ;;		On entry : B1F/0
  3500 ;;		On exit  : 1F/1
  3501 ;;		Unchanged: 0/0
  3502 ;; Data sizes:     COMMON   BANK0   BANK1   BANK2
  3503 ;;      Params:         0       0       0       0
  3504 ;;      Locals:         0       0       0       0
  3505 ;;      Temps:          0       0       0       0
  3506 ;;      Totals:         0       0       0       0
  3507 ;;Total ram usage:        0 bytes
  3508 ;; Hardware stack levels used: 1
  3509 ;; Hardware stack levels required when called: 1
  3510 ;; This function calls:
  3511 ;;		_ADC_Initialize
  3512 ;;		_OSCILLATOR_Initialize
  3513 ;;		_PIN_MANAGER_Initialize
  3514 ;;		_PMD_Initialize
  3515 ;;		_WDT_Initialize
  3516 ;; This function is called by:
  3517 ;;		_main
  3518 ;; This function uses a non-reentrant model
  3519 ;;
  3520                           
  3521  01DC                     _SYSTEM_Initialize:	
  3522                           ;psect for function _SYSTEM_Initialize
  3523                           
  3524                           
  3525                           ;mcc_generated_files/mcc.c: 53:     PMD_Initialize();
  3526                           
  3527                           ;incstack = 0
  3528                           ; Regs used in _SYSTEM_Initialize: [wreg+status,2+status,0+pclath+cstack]
  3529  01DC  21EA               	fcall	_PMD_Initialize
  3530                           
  3531                           ;mcc_generated_files/mcc.c: 54:     PIN_MANAGER_Initialize();
  3532  01DD  2230               	fcall	_PIN_MANAGER_Initialize
  3533                           
  3534                           ;mcc_generated_files/mcc.c: 55:     OSCILLATOR_Initialize();
  3535  01DE  21F2               	fcall	_OSCILLATOR_Initialize
  3536                           
  3537                           ;mcc_generated_files/mcc.c: 56:     WDT_Initialize();
  3538  01DF  21D8               	fcall	_WDT_Initialize
  3539                           
  3540                           ;mcc_generated_files/mcc.c: 57:     ADC_Initialize();
  3541  01E0  21E2               	fcall	_ADC_Initialize
  3542  01E1  0008               	return
  3543  01E2                     __end_of_SYSTEM_Initialize:
  3544                           
  3545                           	psect	text9
  3546  01D8                     __ptext9:	
  3547 ;; *************** function _WDT_Initialize *****************
  3548 ;; Defined at:
  3549 ;;		line 74 in file "mcc_generated_files/mcc.c"
  3550 ;; Parameters:    Size  Location     Type
  3551 ;;		None
  3552 ;; Auto vars:     Size  Location     Type
  3553 ;;		None
  3554 ;; Return value:  Size  Location     Type
  3555 ;;                  1    wreg      void 
  3556 ;; Registers used:
  3557 ;;		wreg
  3558 ;; Tracked objects:
  3559 ;;		On entry : B1F/12
  3560 ;;		On exit  : B1F/1
  3561 ;;		Unchanged: B00/0
  3562 ;; Data sizes:     COMMON   BANK0   BANK1   BANK2
  3563 ;;      Params:         0       0       0       0
  3564 ;;      Locals:         0       0       0       0
  3565 ;;      Temps:          0       0       0       0
  3566 ;;      Totals:         0       0       0       0
  3567 ;;Total ram usage:        0 bytes
  3568 ;; Hardware stack levels used: 1
  3569 ;; This function calls:
  3570 ;;		Nothing
  3571 ;; This function is called by:
  3572 ;;		_SYSTEM_Initialize
  3573 ;; This function uses a non-reentrant model
  3574 ;;
  3575                           
  3576  01D8                     _WDT_Initialize:	
  3577                           ;psect for function _WDT_Initialize
  3578                           
  3579                           
  3580                           ;mcc_generated_files/mcc.c: 77:     WDTCON = 0x16;
  3581                           
  3582                           ;incstack = 0
  3583                           ; Regs used in _WDT_Initialize: [wreg]
  3584  01D8  3016               	movlw	22
  3585  01D9  0021               	movlb	1	; select bank1
  3586  01DA  0097               	movwf	23	;volatile
  3587  01DB  0008               	return
  3588  01DC                     __end_of_WDT_Initialize:
  3589                           
  3590                           	psect	text10
  3591  01EA                     __ptext10:	
  3592 ;; *************** function _PMD_Initialize *****************
  3593 ;; Defined at:
  3594 ;;		line 80 in file "mcc_generated_files/mcc.c"
  3595 ;; Parameters:    Size  Location     Type
  3596 ;;		None
  3597 ;; Auto vars:     Size  Location     Type
  3598 ;;		None
  3599 ;; Return value:  Size  Location     Type
  3600 ;;                  1    wreg      void 
  3601 ;; Registers used:
  3602 ;;		status,2
  3603 ;; Tracked objects:
  3604 ;;		On entry : B1F/0
  3605 ;;		On exit  : B1F/12
  3606 ;;		Unchanged: B00/0
  3607 ;; Data sizes:     COMMON   BANK0   BANK1   BANK2
  3608 ;;      Params:         0       0       0       0
  3609 ;;      Locals:         0       0       0       0
  3610 ;;      Temps:          0       0       0       0
  3611 ;;      Totals:         0       0       0       0
  3612 ;;Total ram usage:        0 bytes
  3613 ;; Hardware stack levels used: 1
  3614 ;; This function calls:
  3615 ;;		Nothing
  3616 ;; This function is called by:
  3617 ;;		_SYSTEM_Initialize
  3618 ;; This function uses a non-reentrant model
  3619 ;;
  3620                           
  3621  01EA                     _PMD_Initialize:	
  3622                           ;psect for function _PMD_Initialize
  3623                           
  3624                           
  3625                           ;mcc_generated_files/mcc.c: 83:     PMD0 = 0x00;
  3626                           
  3627                           ;incstack = 0
  3628                           ; Regs used in _PMD_Initialize: [status,2]
  3629  01EA  0032               	movlb	18	; select bank18
  3630  01EB  0191               	clrf	17	;volatile
  3631                           
  3632                           ;mcc_generated_files/mcc.c: 85:     PMD1 = 0x00;
  3633  01EC  0192               	clrf	18	;volatile
  3634                           
  3635                           ;mcc_generated_files/mcc.c: 87:     PMD2 = 0x00;
  3636  01ED  0193               	clrf	19	;volatile
  3637                           
  3638                           ;mcc_generated_files/mcc.c: 89:     PMD3 = 0x00;
  3639  01EE  0194               	clrf	20	;volatile
  3640                           
  3641                           ;mcc_generated_files/mcc.c: 91:     PMD4 = 0x00;
  3642  01EF  0195               	clrf	21	;volatile
  3643                           
  3644                           ;mcc_generated_files/mcc.c: 93:     PMD5 = 0x00;
  3645  01F0  0196               	clrf	22	;volatile
  3646  01F1  0008               	return
  3647  01F2                     __end_of_PMD_Initialize:
  3648                           
  3649                           	psect	text11
  3650  0230                     __ptext11:	
  3651 ;; *************** function _PIN_MANAGER_Initialize *****************
  3652 ;; Defined at:
  3653 ;;		line 55 in file "mcc_generated_files/pin_manager.c"
  3654 ;; Parameters:    Size  Location     Type
  3655 ;;		None
  3656 ;; Auto vars:     Size  Location     Type
  3657 ;;		None
  3658 ;; Return value:  Size  Location     Type
  3659 ;;                  1    wreg      void 
  3660 ;; Registers used:
  3661 ;;		wreg, status,2
  3662 ;; Tracked objects:
  3663 ;;		On entry : B1F/12
  3664 ;;		On exit  : B1F/7
  3665 ;;		Unchanged: B00/0
  3666 ;; Data sizes:     COMMON   BANK0   BANK1   BANK2
  3667 ;;      Params:         0       0       0       0
  3668 ;;      Locals:         0       0       0       0
  3669 ;;      Temps:          0       0       0       0
  3670 ;;      Totals:         0       0       0       0
  3671 ;;Total ram usage:        0 bytes
  3672 ;; Hardware stack levels used: 1
  3673 ;; This function calls:
  3674 ;;		Nothing
  3675 ;; This function is called by:
  3676 ;;		_SYSTEM_Initialize
  3677 ;; This function uses a non-reentrant model
  3678 ;;
  3679                           
  3680  0230                     _PIN_MANAGER_Initialize:	
  3681                           ;psect for function _PIN_MANAGER_Initialize
  3682                           
  3683                           
  3684                           ;mcc_generated_files/pin_manager.c: 60:     LATA = 0x00;
  3685                           
  3686                           ;incstack = 0
  3687                           ; Regs used in _PIN_MANAGER_Initialize: [wreg+status,2]
  3688  0230  0022               	movlb	2	; select bank2
  3689  0231  018C               	clrf	12	;volatile
  3690                           
  3691                           ;mcc_generated_files/pin_manager.c: 61:     LATC = 0x00;
  3692  0232  018E               	clrf	14	;volatile
  3693                           
  3694                           ;mcc_generated_files/pin_manager.c: 66:     TRISA = 0x17;
  3695  0233  3017               	movlw	23
  3696  0234  0021               	movlb	1	; select bank1
  3697  0235  008C               	movwf	12	;volatile
  3698                           
  3699                           ;mcc_generated_files/pin_manager.c: 67:     TRISC = 0x1F;
  3700  0236  301F               	movlw	31
  3701  0237  008E               	movwf	14	;volatile
  3702                           
  3703                           ;mcc_generated_files/pin_manager.c: 72:     ANSELC = 0x0F;
  3704  0238  300F               	movlw	15
  3705  0239  0023               	movlb	3	; select bank3
  3706  023A  008E               	movwf	14	;volatile
  3707                           
  3708                           ;mcc_generated_files/pin_manager.c: 73:     ANSELA = 0x17;
  3709  023B  3017               	movlw	23
  3710  023C  008C               	movwf	12	;volatile
  3711                           
  3712                           ;mcc_generated_files/pin_manager.c: 78:     WPUA = 0x00;
  3713  023D  0024               	movlb	4	; select bank4
  3714  023E  018C               	clrf	12	;volatile
  3715                           
  3716                           ;mcc_generated_files/pin_manager.c: 79:     WPUC = 0x00;
  3717  023F  018E               	clrf	14	;volatile
  3718                           
  3719                           ;mcc_generated_files/pin_manager.c: 84:     ODCONA = 0x00;
  3720  0240  0025               	movlb	5	; select bank5
  3721  0241  018C               	clrf	12	;volatile
  3722                           
  3723                           ;mcc_generated_files/pin_manager.c: 85:     ODCONC = 0x00;
  3724  0242  018E               	clrf	14	;volatile
  3725                           
  3726                           ;mcc_generated_files/pin_manager.c: 90:     SLRCONA = 0x37;
  3727  0243  3037               	movlw	55
  3728  0244  0026               	movlb	6	; select bank6
  3729  0245  008C               	movwf	12	;volatile
  3730                           
  3731                           ;mcc_generated_files/pin_manager.c: 91:     SLRCONC = 0x3F;
  3732  0246  303F               	movlw	63
  3733  0247  008E               	movwf	14	;volatile
  3734                           
  3735                           ;mcc_generated_files/pin_manager.c: 96:     INLVLA = 0x3F;
  3736  0248  303F               	movlw	63
  3737  0249  0027               	movlb	7	; select bank7
  3738  024A  008C               	movwf	12	;volatile
  3739                           
  3740                           ;mcc_generated_files/pin_manager.c: 97:     INLVLC = 0x3F;
  3741  024B  303F               	movlw	63
  3742  024C  008E               	movwf	14	;volatile
  3743  024D  0008               	return
  3744  024E                     __end_of_PIN_MANAGER_Initialize:
  3745                           
  3746                           	psect	text12
  3747  01F2                     __ptext12:	
  3748 ;; *************** function _OSCILLATOR_Initialize *****************
  3749 ;; Defined at:
  3750 ;;		line 60 in file "mcc_generated_files/mcc.c"
  3751 ;; Parameters:    Size  Location     Type
  3752 ;;		None
  3753 ;; Auto vars:     Size  Location     Type
  3754 ;;		None
  3755 ;; Return value:  Size  Location     Type
  3756 ;;                  1    wreg      void 
  3757 ;; Registers used:
  3758 ;;		wreg, status,2
  3759 ;; Tracked objects:
  3760 ;;		On entry : B1F/7
  3761 ;;		On exit  : B1F/12
  3762 ;;		Unchanged: B00/0
  3763 ;; Data sizes:     COMMON   BANK0   BANK1   BANK2
  3764 ;;      Params:         0       0       0       0
  3765 ;;      Locals:         0       0       0       0
  3766 ;;      Temps:          0       0       0       0
  3767 ;;      Totals:         0       0       0       0
  3768 ;;Total ram usage:        0 bytes
  3769 ;; Hardware stack levels used: 1
  3770 ;; This function calls:
  3771 ;;		Nothing
  3772 ;; This function is called by:
  3773 ;;		_SYSTEM_Initialize
  3774 ;; This function uses a non-reentrant model
  3775 ;;
  3776                           
  3777  01F2                     _OSCILLATOR_Initialize:	
  3778                           ;psect for function _OSCILLATOR_Initialize
  3779                           
  3780                           
  3781                           ;mcc_generated_files/mcc.c: 63:     OSCCON1 = 0x62;
  3782                           
  3783                           ;incstack = 0
  3784                           ; Regs used in _OSCILLATOR_Initialize: [wreg+status,2]
  3785  01F2  3062               	movlw	98
  3786  01F3  0032               	movlb	18	; select bank18
  3787  01F4  0099               	movwf	25	;volatile
  3788                           
  3789                           ;mcc_generated_files/mcc.c: 65:     OSCCON3 = 0x00;
  3790  01F5  019B               	clrf	27	;volatile
  3791                           
  3792                           ;mcc_generated_files/mcc.c: 67:     OSCEN = 0x00;
  3793  01F6  019D               	clrf	29	;volatile
  3794                           
  3795                           ;mcc_generated_files/mcc.c: 69:     OSCFRQ = 0x03;
  3796  01F7  3003               	movlw	3
  3797  01F8  009F               	movwf	31	;volatile
  3798                           
  3799                           ;mcc_generated_files/mcc.c: 71:     OSCTUNE = 0x00;
  3800  01F9  019E               	clrf	30	;volatile
  3801  01FA  0008               	return
  3802  01FB                     __end_of_OSCILLATOR_Initialize:
  3803                           
  3804                           	psect	text13
  3805  01E2                     __ptext13:	
  3806 ;; *************** function _ADC_Initialize *****************
  3807 ;; Defined at:
  3808 ;;		line 67 in file "mcc_generated_files/adc.c"
  3809 ;; Parameters:    Size  Location     Type
  3810 ;;		None
  3811 ;; Auto vars:     Size  Location     Type
  3812 ;;		None
  3813 ;; Return value:  Size  Location     Type
  3814 ;;                  1    wreg      void 
  3815 ;; Registers used:
  3816 ;;		wreg, status,2
  3817 ;; Tracked objects:
  3818 ;;		On entry : 1F/1
  3819 ;;		On exit  : 1F/1
  3820 ;;		Unchanged: 0/0
  3821 ;; Data sizes:     COMMON   BANK0   BANK1   BANK2
  3822 ;;      Params:         0       0       0       0
  3823 ;;      Locals:         0       0       0       0
  3824 ;;      Temps:          0       0       0       0
  3825 ;;      Totals:         0       0       0       0
  3826 ;;Total ram usage:        0 bytes
  3827 ;; Hardware stack levels used: 1
  3828 ;; This function calls:
  3829 ;;		Nothing
  3830 ;; This function is called by:
  3831 ;;		_SYSTEM_Initialize
  3832 ;;		_main
  3833 ;; This function uses a non-reentrant model
  3834 ;;
  3835                           
  3836  01E2                     _ADC_Initialize:	
  3837                           ;psect for function _ADC_Initialize
  3838                           
  3839                           
  3840                           ;mcc_generated_files/adc.c: 72:     ADCON1 = 0x80;
  3841                           
  3842                           ;incstack = 0
  3843                           ; Regs used in _ADC_Initialize: [wreg+status,2]
  3844  01E2  3080               	movlw	128
  3845  01E3  009E               	movwf	30	;volatile
  3846                           
  3847                           ;mcc_generated_files/adc.c: 75:     ADACT = 0x00;
  3848  01E4  019F               	clrf	31	;volatile
  3849                           
  3850                           ;mcc_generated_files/adc.c: 78:     ADRESL = 0x00;
  3851  01E5  019B               	clrf	27	;volatile
  3852                           
  3853                           ;mcc_generated_files/adc.c: 81:     ADRESH = 0x00;
  3854  01E6  019C               	clrf	28	;volatile
  3855                           
  3856                           ;mcc_generated_files/adc.c: 84:     ADCON0 = 0x01;
  3857  01E7  3001               	movlw	1
  3858  01E8  009D               	movwf	29	;volatile
  3859  01E9  0008               	return
  3860  01EA                     __end_of_ADC_Initialize:
  3861                           
  3862                           	psect	text14
  3863  02D6                     __ptext14:	
  3864 ;; *************** function _Configure_Device_Id *****************
  3865 ;; Defined at:
  3866 ;;		line 92 in file "main.c"
  3867 ;; Parameters:    Size  Location     Type
  3868 ;;		None
  3869 ;; Auto vars:     Size  Location     Type
  3870 ;;  C2              1    5[BANK0 ] unsigned char 
  3871 ;;  C1              1    4[BANK0 ] unsigned char 
  3872 ;;  C0              1    3[BANK0 ] unsigned char 
  3873 ;; Return value:  Size  Location     Type
  3874 ;;                  1    wreg      void 
  3875 ;; Registers used:
  3876 ;;		wreg, status,2, status,0, pclath, cstack
  3877 ;; Tracked objects:
  3878 ;;		On entry : 1F/1
  3879 ;;		On exit  : 1F/0
  3880 ;;		Unchanged: 0/0
  3881 ;; Data sizes:     COMMON   BANK0   BANK1   BANK2
  3882 ;;      Params:         0       0       0       0
  3883 ;;      Locals:         0       3       0       0
  3884 ;;      Temps:          0       3       0       0
  3885 ;;      Totals:         0       6       0       0
  3886 ;;Total ram usage:        6 bytes
  3887 ;; Hardware stack levels used: 1
  3888 ;; Hardware stack levels required when called: 1
  3889 ;; This function calls:
  3890 ;;		_ADC_GetConversion
  3891 ;;		___lwdiv
  3892 ;; This function is called by:
  3893 ;;		_main
  3894 ;; This function uses a non-reentrant model
  3895 ;;
  3896                           
  3897  02D6                     _Configure_Device_Id:	
  3898                           ;psect for function _Configure_Device_Id
  3899                           
  3900                           
  3901                           ;main.c: 94:     char C0 = ADC_GetConversion(ID_2)/200;
  3902                           
  3903                           ;incstack = 0
  3904                           ; Regs used in _Configure_Device_Id: [wreg+status,2+status,0+pclath+cstack]
  3905  02D6  30C8               	movlw	200
  3906  02D7  00F4               	movwf	___lwdiv@divisor
  3907  02D8  3000               	movlw	0
  3908  02D9  00F5               	movwf	___lwdiv@divisor+1
  3909  02DA  3010               	movlw	16
  3910  02DB  221A               	fcall	_ADC_GetConversion
  3911  02DC  0871               	movf	?_ADC_GetConversion+1,w
  3912  02DD  00F7               	movwf	___lwdiv@dividend+1
  3913  02DE  0870               	movf	?_ADC_GetConversion,w
  3914  02DF  00F6               	movwf	___lwdiv@dividend
  3915  02E0  226D               	fcall	___lwdiv
  3916  02E1  0874               	movf	?___lwdiv,w
  3917  02E2  0020               	movlb	0	; select bank0
  3918  02E3  00A0               	movwf	??_Configure_Device_Id
  3919  02E4  0820               	movf	??_Configure_Device_Id,w
  3920  02E5  00A3               	movwf	Configure_Device_Id@C0
  3921                           
  3922                           ;main.c: 95:     char C1 = ADC_GetConversion(ID_3)/200;
  3923  02E6  30C8               	movlw	200
  3924  02E7  00F4               	movwf	___lwdiv@divisor
  3925  02E8  3000               	movlw	0
  3926  02E9  00F5               	movwf	___lwdiv@divisor+1
  3927  02EA  3011               	movlw	17
  3928  02EB  221A               	fcall	_ADC_GetConversion
  3929  02EC  0871               	movf	?_ADC_GetConversion+1,w
  3930  02ED  00F7               	movwf	___lwdiv@dividend+1
  3931  02EE  0870               	movf	?_ADC_GetConversion,w
  3932  02EF  00F6               	movwf	___lwdiv@dividend
  3933  02F0  226D               	fcall	___lwdiv
  3934  02F1  0874               	movf	?___lwdiv,w
  3935  02F2  0020               	movlb	0	; select bank0
  3936  02F3  00A0               	movwf	??_Configure_Device_Id
  3937  02F4  0820               	movf	??_Configure_Device_Id,w
  3938  02F5  00A4               	movwf	Configure_Device_Id@C1
  3939                           
  3940                           ;main.c: 96:     char C2 = ADC_GetConversion(ID_4)/200;
  3941  02F6  30C8               	movlw	200
  3942  02F7  00F4               	movwf	___lwdiv@divisor
  3943  02F8  3000               	movlw	0
  3944  02F9  00F5               	movwf	___lwdiv@divisor+1
  3945  02FA  3012               	movlw	18
  3946  02FB  221A               	fcall	_ADC_GetConversion
  3947  02FC  0871               	movf	?_ADC_GetConversion+1,w
  3948  02FD  00F7               	movwf	___lwdiv@dividend+1
  3949  02FE  0870               	movf	?_ADC_GetConversion,w
  3950  02FF  00F6               	movwf	___lwdiv@dividend
  3951  0300  226D               	fcall	___lwdiv
  3952  0301  0874               	movf	?___lwdiv,w
  3953  0302  0020               	movlb	0	; select bank0
  3954  0303  00A0               	movwf	??_Configure_Device_Id
  3955  0304  0820               	movf	??_Configure_Device_Id,w
  3956  0305  00A5               	movwf	Configure_Device_Id@C2
  3957                           
  3958                           ;main.c: 98:     device_ID = ( C0<<6 | C1<<3 | C2);
  3959  0306  0824               	movf	Configure_Device_Id@C1,w
  3960  0307  00A0               	movwf	??_Configure_Device_Id
  3961  0308  3003               	movlw	3
  3962  0309                     u2095:
  3963  0309  35A0               	lslf	??_Configure_Device_Id,f
  3964  030A  0B89               	decfsz	9,f
  3965  030B  2B09               	goto	u2095
  3966  030C  0823               	movf	Configure_Device_Id@C0,w
  3967  030D  00A1               	movwf	??_Configure_Device_Id+1
  3968  030E  3005               	movlw	5
  3969  030F                     u2105:
  3970  030F  35A1               	lslf	??_Configure_Device_Id+1,f
  3971  0310  3EFF               	addlw	-1
  3972  0311  1D03               	skipz
  3973  0312  2B0F               	goto	u2105
  3974  0313  3521               	lslf	??_Configure_Device_Id+1,w
  3975  0314  0420               	iorwf	??_Configure_Device_Id,w
  3976  0315  0425               	iorwf	Configure_Device_Id@C2,w
  3977  0316  00A2               	movwf	??_Configure_Device_Id+2
  3978  0317  0822               	movf	??_Configure_Device_Id+2,w
  3979  0318  00E1               	movwf	_device_ID
  3980  0319  0008               	return
  3981  031A                     __end_of_Configure_Device_Id:
  3982                           
  3983                           	psect	text15
  3984  026D                     __ptext15:	
  3985 ;; *************** function ___lwdiv *****************
  3986 ;; Defined at:
  3987 ;;		line 5 in file "D:\Softwares\Microchip\xc8\v2.36\pic\sources\c99\common\lwdiv.c"
  3988 ;; Parameters:    Size  Location     Type
  3989 ;;  divisor         2    4[COMMON] unsigned int 
  3990 ;;  dividend        2    6[COMMON] unsigned int 
  3991 ;; Auto vars:     Size  Location     Type
  3992 ;;  quotient        2    9[COMMON] unsigned int 
  3993 ;;  counter         1   11[COMMON] unsigned char 
  3994 ;; Return value:  Size  Location     Type
  3995 ;;                  2    4[COMMON] unsigned int 
  3996 ;; Registers used:
  3997 ;;		wreg, status,2, status,0
  3998 ;; Tracked objects:
  3999 ;;		On entry : 1F/1
  4000 ;;		On exit  : 1F/1
  4001 ;;		Unchanged: 1F/0
  4002 ;; Data sizes:     COMMON   BANK0   BANK1   BANK2
  4003 ;;      Params:         4       0       0       0
  4004 ;;      Locals:         3       0       0       0
  4005 ;;      Temps:          1       0       0       0
  4006 ;;      Totals:         8       0       0       0
  4007 ;;Total ram usage:        8 bytes
  4008 ;; Hardware stack levels used: 1
  4009 ;; This function calls:
  4010 ;;		Nothing
  4011 ;; This function is called by:
  4012 ;;		_Configure_Device_Id
  4013 ;; This function uses a non-reentrant model
  4014 ;;
  4015                           
  4016  026D                     ___lwdiv:	
  4017                           ;psect for function ___lwdiv
  4018                           
  4019                           
  4020                           ;incstack = 0
  4021                           ; Regs used in ___lwdiv: [wreg+status,2+status,0]
  4022  026D  01F9               	clrf	___lwdiv@quotient
  4023  026E  01FA               	clrf	___lwdiv@quotient+1
  4024  026F  0874               	movf	___lwdiv@divisor,w
  4025  0270  0475               	iorwf	___lwdiv@divisor+1,w
  4026  0271  1903               	btfsc	3,2
  4027  0272  2A9C               	goto	l1771
  4028  0273  01FB               	clrf	___lwdiv@counter
  4029  0274  0AFB               	incf	___lwdiv@counter,f
  4030  0275                     l1759:
  4031  0275  1BF5               	btfsc	___lwdiv@divisor+1,7
  4032  0276  2A81               	goto	l1761
  4033  0277  3001               	movlw	1
  4034  0278                     u2035:
  4035  0278  35F4               	lslf	___lwdiv@divisor,f
  4036  0279  0DF5               	rlf	___lwdiv@divisor+1,f
  4037  027A  0B89               	decfsz	9,f
  4038  027B  2A78               	goto	u2035
  4039  027C  3001               	movlw	1
  4040  027D  00F8               	movwf	??___lwdiv
  4041  027E  0878               	movf	??___lwdiv,w
  4042  027F  07FB               	addwf	___lwdiv@counter,f
  4043  0280  2A75               	goto	l1759
  4044  0281                     l1761:
  4045  0281  3001               	movlw	1
  4046  0282                     u2055:
  4047  0282  35F9               	lslf	___lwdiv@quotient,f
  4048  0283  0DFA               	rlf	___lwdiv@quotient+1,f
  4049  0284  0B89               	decfsz	9,f
  4050  0285  2A82               	goto	u2055
  4051  0286  0875               	movf	___lwdiv@divisor+1,w
  4052  0287  0277               	subwf	___lwdiv@dividend+1,w
  4053  0288  1D03               	skipz
  4054  0289  2A8C               	goto	u2065
  4055  028A  0874               	movf	___lwdiv@divisor,w
  4056  028B  0276               	subwf	___lwdiv@dividend,w
  4057  028C                     u2065:
  4058  028C  1C03               	skipc
  4059  028D  2A93               	goto	l1767
  4060  028E  0874               	movf	___lwdiv@divisor,w
  4061  028F  02F6               	subwf	___lwdiv@dividend,f
  4062  0290  0875               	movf	___lwdiv@divisor+1,w
  4063  0291  3BF7               	subwfb	___lwdiv@dividend+1,f
  4064  0292  1479               	bsf	___lwdiv@quotient,0
  4065  0293                     l1767:
  4066  0293  3001               	movlw	1
  4067  0294                     u2075:
  4068  0294  36F5               	lsrf	___lwdiv@divisor+1,f
  4069  0295  0CF4               	rrf	___lwdiv@divisor,f
  4070  0296  0B89               	decfsz	9,f
  4071  0297  2A94               	goto	u2075
  4072  0298  3001               	movlw	1
  4073  0299  02FB               	subwf	___lwdiv@counter,f
  4074  029A  1D03               	btfss	3,2
  4075  029B  2A81               	goto	l1761
  4076  029C                     l1771:
  4077  029C  087A               	movf	___lwdiv@quotient+1,w
  4078  029D  00F5               	movwf	?___lwdiv+1
  4079  029E  0879               	movf	___lwdiv@quotient,w
  4080  029F  00F4               	movwf	?___lwdiv
  4081  02A0  0008               	return
  4082  02A1                     __end_of___lwdiv:
  4083                           
  4084                           	psect	text16
  4085  021A                     __ptext16:	
  4086 ;; *************** function _ADC_GetConversion *****************
  4087 ;; Defined at:
  4088 ;;		line 115 in file "mcc_generated_files/adc.c"
  4089 ;; Parameters:    Size  Location     Type
  4090 ;;  channel         1    wreg     enum E4844
  4091 ;; Auto vars:     Size  Location     Type
  4092 ;;  channel         1    3[COMMON] enum E4844
  4093 ;; Return value:  Size  Location     Type
  4094 ;;                  2    0[COMMON] unsigned short 
  4095 ;; Registers used:
  4096 ;;		wreg, status,2, status,0
  4097 ;; Tracked objects:
  4098 ;;		On entry : 0/0
  4099 ;;		On exit  : 1F/1
  4100 ;;		Unchanged: 0/0
  4101 ;; Data sizes:     COMMON   BANK0   BANK1   BANK2
  4102 ;;      Params:         2       0       0       0
  4103 ;;      Locals:         1       0       0       0
  4104 ;;      Temps:          1       0       0       0
  4105 ;;      Totals:         4       0       0       0
  4106 ;;Total ram usage:        4 bytes
  4107 ;; Hardware stack levels used: 1
  4108 ;; This function calls:
  4109 ;;		Nothing
  4110 ;; This function is called by:
  4111 ;;		_Configure_Device_Id
  4112 ;;		_readTemperatureFromSensor
  4113 ;; This function uses a non-reentrant model
  4114 ;;
  4115                           
  4116  021A                     _ADC_GetConversion:	
  4117                           ;psect for function _ADC_GetConversion
  4118                           
  4119                           
  4120                           ;incstack = 0
  4121                           ; Regs used in _ADC_GetConversion: [wreg+status,2+status,0]
  4122                           ;ADC_GetConversion@channel stored from wreg
  4123  021A  00F3               	movwf	ADC_GetConversion@channel
  4124                           
  4125                           ;mcc_generated_files/adc.c: 115: adc_result_t ADC_GetConversion(adc_channel_t channel);m
      +                          cc_generated_files/adc.c: 116: {;mcc_generated_files/adc.c: 118:     ADCON0bits.CHS = ch
      +                          annel;
  4126  021B  0873               	movf	ADC_GetConversion@channel,w
  4127  021C  00F2               	movwf	??_ADC_GetConversion
  4128  021D  0DF2               	rlf	??_ADC_GetConversion,f
  4129  021E  0DF2               	rlf	??_ADC_GetConversion,f
  4130  021F  0021               	movlb	1	; select bank1
  4131  0220  081D               	movf	29,w	;volatile
  4132  0221  0672               	xorwf	??_ADC_GetConversion,w
  4133  0222  3903               	andlw	-253
  4134  0223  0672               	xorwf	??_ADC_GetConversion,w
  4135  0224  009D               	movwf	29	;volatile
  4136                           
  4137                           ;mcc_generated_files/adc.c: 121:     ADCON0bits.ADON = 1;
  4138  0225  141D               	bsf	29,0	;volatile
  4139                           
  4140                           ;mcc_generated_files/adc.c: 124:     _delay((unsigned long)((5)*(1000000/4000000.0)));
  4141  0226  0000               	nop
  4142                           
  4143                           ;mcc_generated_files/adc.c: 127:     ADCON0bits.ADGO = 1;
  4144  0227  0021               	movlb	1	; select bank1
  4145  0228  149D               	bsf	29,1	;volatile
  4146  0229                     l68:	
  4147                           ;mcc_generated_files/adc.c: 131:     {;mcc_generated_files/adc.c: 132:     }
  4148                           
  4149                           
  4150                           ;mcc_generated_files/adc.c: 130:     while (ADCON0bits.ADGO)
  4151  0229  189D               	btfsc	29,1	;volatile
  4152  022A  2A29               	goto	l68
  4153                           
  4154                           ;mcc_generated_files/adc.c: 135:     return ((adc_result_t)((ADRESH << 8) + ADRESL));
  4155  022B  081C               	movf	28,w	;volatile
  4156  022C  00F1               	movwf	?_ADC_GetConversion+1
  4157  022D  081B               	movf	27,w	;volatile
  4158  022E  00F0               	movwf	?_ADC_GetConversion
  4159  022F  0008               	return
  4160  0230                     __end_of_ADC_GetConversion:
  4161  007E                     btemp	set	126	;btemp
  4162  007E                     wtemp0	set	126
  4163                           
  4164                           	psect	idloc
  4165                           
  4166                           ;Config register IDLOC0 @ 0x8000
  4167                           ;	unspecified, using default values
  4168  8000                     	org	32768
  4169  8000  3FFF               	dw	16383
  4170                           
  4171                           ;Config register IDLOC1 @ 0x8001
  4172                           ;	unspecified, using default values
  4173  8001                     	org	32769
  4174  8001  3FFF               	dw	16383
  4175                           
  4176                           ;Config register IDLOC2 @ 0x8002
  4177                           ;	unspecified, using default values
  4178  8002                     	org	32770
  4179  8002  3FFF               	dw	16383
  4180                           
  4181                           ;Config register IDLOC3 @ 0x8003
  4182                           ;	unspecified, using default values
  4183  8003                     	org	32771
  4184  8003  3FFF               	dw	16383
  4185                           
  4186                           	psect	config
  4187                           
  4188                           ;Config register CONFIG1 @ 0x8007
  4189                           ;	FEXTOSC External Oscillator mode Selection bits
  4190                           ;	FEXTOSC = OFF, Oscillator not enabled
  4191                           ;	Power-up default value for COSC bits
  4192                           ;	RSTOSC = HFINT1, HFINTOSC (1MHz)
  4193                           ;	Clock Out Enable bit
  4194                           ;	CLKOUTEN = OFF, CLKOUT function is disabled; I/O or oscillator function on OSC2
  4195                           ;	Clock Switch Enable bit
  4196                           ;	CSWEN = ON, Writing to NOSC and NDIV is allowed
  4197                           ;	Fail-Safe Clock Monitor Enable
  4198                           ;	FCMEN = ON, Fail-Safe Clock Monitor is enabled
  4199  8007                     	org	32775
  4200  8007  3FEC               	dw	16364
  4201                           
  4202                           ;Config register CONFIG2 @ 0x8008
  4203                           ;	Master Clear Enable bit
  4204                           ;	MCLRE = ON, MCLR/VPP pin function is MCLR; Weak pull-up enabled
  4205                           ;	Power-up Timer Enable bit
  4206                           ;	PWRTE = OFF, PWRT disabled
  4207                           ;	Watchdog Timer Enable bits
  4208                           ;	WDTE = OFF, WDT disabled; SWDTEN is ignored
  4209                           ;	Low-power BOR enable bit
  4210                           ;	LPBOREN = OFF, ULPBOR disabled
  4211                           ;	Brown-out Reset Enable bits
  4212                           ;	BOREN = ON, Brown-out Reset enabled, SBOREN bit ignored
  4213                           ;	Brown-out Reset Voltage selection bit
  4214                           ;	BORV = LOW, Brown-out voltage (Vbor) set to 2.45V
  4215                           ;	PPSLOCK bit One-Way Set Enable bit
  4216                           ;	PPS1WAY = ON, The PPSLOCK bit can be cleared and set only once; PPS registers remain l
      +                          ocked after one clear/set cycle
  4217                           ;	Stack Overflow/Underflow Reset Enable bit
  4218                           ;	STVREN = ON, Stack Overflow or Underflow will cause a Reset
  4219                           ;	Debugger enable bit
  4220                           ;	DEBUG = OFF, Background debugger disabled
  4221  8008                     	org	32776
  4222  8008  3FF3               	dw	16371
  4223                           
  4224                           ;Config register CONFIG3 @ 0x8009
  4225                           ;	User NVM self-write protection bits
  4226                           ;	WRT = OFF, Write protection off
  4227                           ;	Low Voltage Programming Enable bit
  4228                           ;	LVP = ON, Low Voltage programming enabled. MCLR/VPP pin function is MCLR. MCLRE config
      +                          uration bit is ignored.
  4229  8009                     	org	32777
  4230  8009  3FFF               	dw	16383
  4231                           
  4232                           ;Config register CONFIG4 @ 0x800A
  4233                           ;	User NVM Program Memory Code Protection bit
  4234                           ;	CP = OFF, User NVM code protection disabled
  4235                           ;	Data NVM Memory Code Protection bit
  4236                           ;	CPD = OFF, Data NVM code protection disabled
  4237  800A                     	org	32778
  4238  800A  3FFF               	dw	16383

Data Sizes:
    Strings     0
    Constant    0
    Data        0
    BSS         2
    Persistent  33
    Stack       0

Auto Spaces:
    Space          Size  Autos    Used
    COMMON           14     14      14
    BANK0            80     63      66
    BANK1            80      0       0
    BANK2            80      0       0

Pointer List with Targets:

    ADC_InterruptHandler	PTR FTN()void  size(2) Largest target is 1
		 -> Absolute function(), 


Critical Paths under _main in COMMON

    _calculateTemperatureFromVolatage->___xxtofl
    ___fltol->___xxtofl
    ___flmul->___xxtofl
    ___fladd->___xxtofl
    _Configure_Device_Id->___lwdiv
    ___lwdiv->_ADC_GetConversion

Critical Paths under _main in BANK0

    _main->_readTemperatureFromSensor
    _readTemperatureFromSensor->_calculateTemperatureFromVolatage
    _calculateTemperatureFromVolatage->___fltol
    ___fltol->___fladd
    ___fladd->___flmul

Critical Paths under _main in BANK1

    None.

Critical Paths under _main in BANK2

    None.

Call Graph Tables:

 ---------------------------------------------------------------------------------
 (Depth) Function   	        Calls       Base Space   Used Autos Params    Refs
 ---------------------------------------------------------------------------------
 (0) _main                                                 3     3      0    6236
                                             61 BANK0      2     2      0
                     _ADC_Initialize
                _Configure_Device_Id
                  _SYSTEM_Initialize
          _readTemperatureFromSensor
 ---------------------------------------------------------------------------------
 (1) _readTemperatureFromSensor                            2     2      0    5526
                                             59 BANK0      2     2      0
                  _ADC_GetConversion
   _calculateTemperatureFromVolatage
 ---------------------------------------------------------------------------------
 (2) _calculateTemperatureFromVolatage                     2     0      2    5481
                                             57 BANK0      2     0      2
                            ___fladd
                            ___flmul
                            ___fltol
                           ___xxtofl
 ---------------------------------------------------------------------------------
 (3) ___xxtofl                                            14    10      4     398
                                              0 COMMON    14    10      4
 ---------------------------------------------------------------------------------
 (3) ___fltol                                             11     7      4     305
                                             46 BANK0     11     7      4
                            ___fladd (ARG)
                            ___flmul (ARG)
                           ___xxtofl (ARG)
 ---------------------------------------------------------------------------------
 (3) ___flmul                                             26    18      8    2418
                                              0 BANK0     26    18      8
                          __Umul8_16
                           ___xxtofl (ARG)
 ---------------------------------------------------------------------------------
 (4) __Umul8_16                                            9     7      2     799
                                              0 COMMON     9     7      2
 ---------------------------------------------------------------------------------
 (3) ___fladd                                             20    12      8    2262
                                             26 BANK0     20    12      8
                            ___flmul (ARG)
                           ___xxtofl (ARG)
 ---------------------------------------------------------------------------------
 (1) _SYSTEM_Initialize                                    0     0      0       0
                     _ADC_Initialize
              _OSCILLATOR_Initialize
             _PIN_MANAGER_Initialize
                     _PMD_Initialize
                     _WDT_Initialize
 ---------------------------------------------------------------------------------
 (2) _WDT_Initialize                                       0     0      0       0
 ---------------------------------------------------------------------------------
 (2) _PMD_Initialize                                       0     0      0       0
 ---------------------------------------------------------------------------------
 (2) _PIN_MANAGER_Initialize                               0     0      0       0
 ---------------------------------------------------------------------------------
 (2) _OSCILLATOR_Initialize                                0     0      0       0
 ---------------------------------------------------------------------------------
 (2) _ADC_Initialize                                       0     0      0       0
 ---------------------------------------------------------------------------------
 (1) _Configure_Device_Id                                  6     6      0     709
                                              0 BANK0      6     6      0
                  _ADC_GetConversion
                            ___lwdiv
 ---------------------------------------------------------------------------------
 (2) ___lwdiv                                              8     4      4     618
                                              4 COMMON     8     4      4
                  _ADC_GetConversion (ARG)
 ---------------------------------------------------------------------------------
 (2) _ADC_GetConversion                                    4     2      2      22
                                              0 COMMON     4     2      2
 ---------------------------------------------------------------------------------
 Estimated maximum stack depth 4
 ---------------------------------------------------------------------------------

 Call Graph Graphs:

 _main (ROOT)
   _ADC_Initialize
   _Configure_Device_Id
     _ADC_GetConversion
     ___lwdiv
       _ADC_GetConversion (ARG)
   _SYSTEM_Initialize
     _ADC_Initialize
     _OSCILLATOR_Initialize
     _PIN_MANAGER_Initialize
     _PMD_Initialize
     _WDT_Initialize
   _readTemperatureFromSensor
     _ADC_GetConversion
     _calculateTemperatureFromVolatage
       ___fladd
         ___flmul (ARG)
           __Umul8_16
           ___xxtofl (ARG)
         ___xxtofl (ARG)
       ___flmul
       ___fltol
         ___fladd (ARG)
         ___flmul (ARG)
         ___xxtofl (ARG)
       ___xxtofl

 Address spaces:
Name               Size   Autos  Total    Cost      Usage
BIGRAM              F0      0       0       0        0.0%
EEDATA             100      0       0       0        0.0%
NULL                 0      0       0       0        0.0%
CODE                 0      0       0       0        0.0%
BITCOMMON            E      0       0       1        0.0%
BITSFR0              0      0       0       1        0.0%
SFR0                 0      0       0       1        0.0%
COMMON               E      E       E       2      100.0%
BITSFR1              0      0       0       2        0.0%
SFR1                 0      0       0       2        0.0%
BITSFR2              0      0       0       3        0.0%
SFR2                 0      0       0       3        0.0%
STACK                0      0       0       3        0.0%
BITSFR3              0      0       0       4        0.0%
SFR3                 0      0       0       4        0.0%
ABS                  0      0      50       4        0.0%
BITBANK0            50      0       0       5        0.0%
BITSFR4              0      0       0       5        0.0%
SFR4                 0      0       0       5        0.0%
BANK0               50     3F      42       6       82.5%
BITSFR5              0      0       0       6        0.0%
SFR5                 0      0       0       6        0.0%
BITBANK1            50      0       0       7        0.0%
BITSFR6              0      0       0       7        0.0%
SFR6                 0      0       0       7        0.0%
BANK1               50      0       0       8        0.0%
BITSFR7              0      0       0       8        0.0%
SFR7                 0      0       0       8        0.0%
BITBANK2            50      0       0       9        0.0%
BITSFR8              0      0       0       9        0.0%
SFR8                 0      0       0       9        0.0%
BANK2               50      0       0      10        0.0%
BITSFR9              0      0       0      10        0.0%
SFR9                 0      0       0      10        0.0%
BITSFR10             0      0       0      11        0.0%
SFR10                0      0       0      11        0.0%
DATA                 0      0      50      11        0.0%
BITSFR11             0      0       0      12        0.0%
SFR11                0      0       0      12        0.0%
BITSFR12             0      0       0      13        0.0%
SFR12                0      0       0      13        0.0%
BITSFR13             0      0       0      14        0.0%
SFR13                0      0       0      14        0.0%
BITSFR14             0      0       0      15        0.0%
SFR14                0      0       0      15        0.0%
BITSFR15             0      0       0      16        0.0%
SFR15                0      0       0      16        0.0%
BITSFR16             0      0       0      17        0.0%
SFR16                0      0       0      17        0.0%
BITSFR17             0      0       0      18        0.0%
SFR17                0      0       0      18        0.0%
BITSFR18             0      0       0      19        0.0%
SFR18                0      0       0      19        0.0%
BITSFR19             0      0       0      20        0.0%
SFR19                0      0       0      20        0.0%
BITSFR20             0      0       0      21        0.0%
SFR20                0      0       0      21        0.0%
BITSFR21             0      0       0      22        0.0%
SFR21                0      0       0      22        0.0%
BITSFR22             0      0       0      23        0.0%
SFR22                0      0       0      23        0.0%
BITSFR23             0      0       0      24        0.0%
SFR23                0      0       0      24        0.0%
BITSFR24             0      0       0      25        0.0%
SFR24                0      0       0      25        0.0%
BITSFR25             0      0       0      26        0.0%
SFR25                0      0       0      26        0.0%
BITSFR26             0      0       0      27        0.0%
SFR26                0      0       0      27        0.0%
BITSFR27             0      0       0      28        0.0%
SFR27                0      0       0      28        0.0%
BITSFR28             0      0       0      29        0.0%
SFR28                0      0       0      29        0.0%
BITSFR29             0      0       0      30        0.0%
SFR29                0      0       0      30        0.0%
BITSFR30             0      0       0      31        0.0%
SFR30                0      0       0      31        0.0%
BITSFR31             0      0       0      32        0.0%
SFR31                0      0       0      32        0.0%


Microchip Technology PIC Macro Assembler V2.36 build 20220127204148 
Symbol Table                                                                                   Sat May 14 17:33:43 2022

                                      l68 0229                       __Umul8_16@word_mpld 0076  
               _readTemperatureFromSensor 01FB                                       l514 0363  
                                     l620 04D6                                       l614 0460  
                                     l618 04F3                                       l722 07EE  
                                     l635 0576                                       l656 05ED  
                                     l648 05D5                                       l760 03D2  
                                     l729 025E                                       l754 039C  
                                     l767 03E6                                       l768 03F0  
                                     wreg 0009                              ___flmul@aexp 002E  
                            ___flmul@bexp 0033                              ___flmul@sign 002D  
                            ___flmul@temp 0038                              ___flmul@prod 0034  
                            ___fltol@exp1 0058                                      l1321 0323  
                                    l1403 046A                                      l1309 0258  
                                    l1341 0351                                      l1325 032C  
                                    l1503 0595                                      l1511 059E  
                                    l1351 0370                                      l1343 035F  
                                    l1521 05A9                                      l1441 04DE  
                                    l1433 04A6                                      l1443 04E0  
                                    l1451 04EE                                      l1517 05A7  
                                    l1509 059C                                      l1373 0430  
                                    l1701 03AB                                      l1543 05E9  
                                    l1375 0438                                      l1393 0455  
                                    l1369 042D                                      l1705 03AF  
                                    l1539 05E5                                      l1467 0513  
                                    l1459 0501                                      l1563 060E  
                                    l1715 03E4                                      l1707 03BF  
                                    l1469 0515                                      l1477 0524  
                                    l1397 0458                                      l1653 0784  
                                    l1645 0756                                      l1581 0631  
                                    l1565 0610                                      l1717 03D7  
                                    l1495 0588                                      l1487 056E  
                                    l1671 07C4                                      l1647 076D  
                                    l1583 0633                                      l1567 0618  
                                    l1761 0281                                      l1657 0786  
                                    l1593 0649                                      l1585 063B  
                                    l1729 040B                                      l1771 029C  
                                    l1667 07AF                                      l1677 07DB  
                                    l1767 0293                                      l1759 0275  
                                    l1695 0394                                      l1785 020B  
                     _Configure_Device_Id 02D6                                      u1105 0335  
                                    u1300 04C6                                      u1135 0352  
                                    u2105 030F                                      u2035 0278  
                                    u1075 025F                                      u1413 0536  
                                    u1405 0519                                      u1165 0367  
                                    u2117 0211                                      _LATA 010C  
                                    u2055 0282                                      u1335 04E4  
                                    _LATC 010E                                      u2065 028C  
                                    u1290 04C5                                      u2075 0294  
                                    u1285 04BA                                      u2095 0309  
                                    u1455 0589                                      u1705 06B6  
                                    u1555 05C0                                      u1715 06DF  
                                    u1725 0729                                      u1735 0745  
                                    u1745 0759                                      u1905 03B8  
                                    u1835 079D                                      u1845 07B8  
                                    u1765 0762                                      u1925 03CC  
                                    u1855 07CE                                      u1945 03DE  
                                    _PMD0 0911                                      _PMD1 0912  
                                    _PMD2 0913                                      _PMD3 0914  
                                    _PMD4 0915                                      u1985 03F8  
                                    _PMD5 0916                                      _WPUA 020C  
                                    _WPUC 020E                                      _main 0208  
                                    btemp 007E                                      start 0001  
                    ?_Configure_Device_Id 0070             __end_of_OSCILLATOR_Initialize 01FB  
                           ___fltol@sign1 0057                                     _ADACT 009F  
                         __end_of___fladd 05F5                                     ?_main 0070  
                         __end_of___flmul 07FB                           __end_of___fltol 037F  
                         __end_of___lwdiv 02A1                                     _OSCEN 091D  
                                   _TRISA 008C                                     _TRISC 008E  
                          _WDT_Initialize 01D8                                     status 0003  
                                   wtemp0 007E                           __initialization 07FB  
                            __end_of_main 021A                     ??_Configure_Device_Id 0020  
        readTemperatureFromSensor@voltage 005B                                    ??_main 005D  
                  __end_of_WDT_Initialize 01DC                                    _ADCON0 009D  
                                  _ADCON1 009E                                    _ADRESH 009C  
                                  _ADRESL 009B                                    _ANSELA 018C  
                                  _ANSELC 018E                                    _ODCONA 028C  
                                  _ODCONC 028E                                    _INLVLA 038C  
                                  _INLVLC 038E                                    _OSCFRQ 091F  
                                  _WDTCON 0097                          __end_of___xxtofl 0414  
                               ??___fladd 0042                                 ??___flmul 0028  
                               ??___fltol 0052                                 ??___lwdiv 0078  
                          _PMD_Initialize 01EA                           ?_WDT_Initialize 0070  
                ADC_GetConversion@channel 0073                              ___xxtofl@arg 007A  
                            ___xxtofl@exp 0079                         _SYSTEM_Initialize 01DC  
                            ___xxtofl@val 0070                   __end_of__initialization 07FE  
                      ?_SYSTEM_Initialize 0070                                ___fltol@f1 004E  
                          __pcstackCOMMON 0070                       ??_SYSTEM_Initialize 0070  
                  __end_of_PMD_Initialize 01F2                 __end_of_SYSTEM_Initialize 01E2  
                              __pbssBANK0 005F         __end_of_readTemperatureFromSensor 0208  
                       __end_of__Umul8_16 026D                                __pmaintext 0208  
                         ?_PMD_Initialize 0070                                 ?___xxtofl 0070  
                                 _OSCCON1 0919                                   _OSCCON3 091B  
                                 _OSCTUNE 091E                                   _SLRCONA 030C  
                                 _SLRCONC 030E                      _ADC_InterruptHandler 005F  
                                 ___fladd 0414                                   ___flmul 05F5  
                                 ___fltol 031A                                   ___lwdiv 026D  
                                 __ptext1 01FB                                   __ptext2 02A1  
                                 __ptext3 037F                                   __ptext4 031A  
                                 __ptext5 05F5                                   __ptext6 024E  
                                 __ptext7 0414                                   __ptext8 01DC  
                                 __ptext9 01D8                     _OSCILLATOR_Initialize 01F2  
                              ??___xxtofl 0074                  ??_PIN_MANAGER_Initialize 0070  
__end_of_calculateTemperatureFromVolatage 02D6         ?_calculateTemperatureFromVolatage 0059  
      ??_calculateTemperatureFromVolatage 007E          _calculateTemperatureFromVolatage 02A1  
                    end_of_initialization 07FE               __end_of_Configure_Device_Id 031A  
                        ??_WDT_Initialize 0070                     Configure_Device_Id@C0 0023  
                   Configure_Device_Id@C1 0024                     Configure_Device_Id@C2 0025  
                             ___fladd@grs 004D                             ___xxtofl@sign 0078  
                             ___flmul@grs 002F                            _ADC_Initialize 01E2  
                  ?_OSCILLATOR_Initialize 0070                       start_initialization 07FB  
                        ??_PMD_Initialize 0070                    __end_of_ADC_Initialize 01EA  
                               __Umul8_16 024E                                 ___fladd@a 003E  
                               ___fladd@b 003A                                 ___flmul@a 0024  
                               ___flmul@b 0020                                 ___latbits 0000  
                           __pcstackBANK0 0020                ?_readTemperatureFromSensor 0070  
                               __pnvBANK0 0061                          ___lwdiv@dividend 0076  
                  _PIN_MANAGER_Initialize 0230                                 _device_ID 0061  
                                ?___fladd 003A                                  ?___flmul 0020  
                                ?___fltol 004E                                ?__Umul8_16 0070  
                                ?___lwdiv 0074                           ?_ADC_Initialize 0070  
                        ___lwdiv@quotient 0079                                _ADCON0bits 009D  
                       _ADC_GetConversion 021A                   ??_OSCILLATOR_Initialize 0070  
                             ??__Umul8_16 0072                        ?_ADC_GetConversion 0070  
                     ??_ADC_GetConversion 0072                                  ___xxtofl 037F  
                         ___lwdiv@divisor 0074                           ___lwdiv@counter 007B  
                                __ptext10 01EA                                  __ptext11 0230  
                                __ptext12 01F2                                  __ptext13 01E2  
                                __ptext14 02D6                                  __ptext15 026D  
                                __ptext16 021A                 __end_of_ADC_GetConversion 0230  
     calculateTemperatureFromVolatage@vol 0059                   ?_PIN_MANAGER_Initialize 0070  
             ??_readTemperatureFromSensor 007E                          ??_ADC_Initialize 0070  
                  __Umul8_16@multiplicand 0070                             ___fladd@signs 004A  
          __end_of_PIN_MANAGER_Initialize 024E                              ___fladd@aexp 004B  
                            ___fladd@bexp 004C                      __Umul8_16@multiplier 0078  
                       __Umul8_16@product 0074  
